
AVRASM ver. 2.1.30  D:\project\my\mega16_und_dr\mega16_und_dr\mega16_und_dr\List\alpha.asm Mon Apr 28 10:07:29 2014

D:\project\my\mega16_und_dr\mega16_und_dr\mega16_und_dr\List\alpha.asm(1072): warning: Register r5 already defined by the .DEF directive
D:\project\my\mega16_und_dr\mega16_und_dr\mega16_und_dr\List\alpha.asm(1073): warning: Register r4 already defined by the .DEF directive
D:\project\my\mega16_und_dr\mega16_und_dr\mega16_und_dr\List\alpha.asm(1074): warning: Register r7 already defined by the .DEF directive
D:\project\my\mega16_und_dr\mega16_und_dr\mega16_und_dr\List\alpha.asm(1075): warning: Register r6 already defined by the .DEF directive
D:\project\my\mega16_und_dr\mega16_und_dr\mega16_und_dr\List\alpha.asm(1076): warning: Register r8 already defined by the .DEF directive
D:\project\my\mega16_und_dr\mega16_und_dr\mega16_und_dr\List\alpha.asm(1077): warning: Register r10 already defined by the .DEF directive
D:\project\my\mega16_und_dr\mega16_und_dr\mega16_und_dr\List\alpha.asm(1078): warning: Register r12 already defined by the .DEF directive
                 
                 
                 ;CodeVisionAVR C Compiler V2.05.3 Standard
                 ;(C) Copyright 1998-2011 Pavel Haiduc, HP InfoTech s.r.l.
                 ;http://www.hpinfotech.com
                 
                 ;Chip type                : ATmega16
                 ;Program type             : Application
                 ;Clock frequency          : 8,000000 MHz
                 ;Memory model             : Small
                 ;Optimize for             : Size
                 ;(s)printf features       : int, width
                 ;(s)scanf features        : int, width
                 ;External RAM size        : 0
                 ;Data Stack size          : 256 byte(s)
                 ;Heap size                : 0 byte(s)
                 ;Promote 'char' to 'int'  : Yes
                 ;'char' is unsigned       : Yes
                 ;8 bit enums              : Yes
                 ;Global 'const' stored in FLASH     : No
                 ;Enhanced function parameter passing: Yes
                 ;Enhanced core instructions         : On
                 ;Smart register allocation          : On
                 ;Automatic register allocation      : On
                 
                 	#pragma AVRPART ADMIN PART_NAME ATmega16
                 	#pragma AVRPART MEMORY PROG_FLASH 16384
                 	#pragma AVRPART MEMORY EEPROM 512
                 	#pragma AVRPART MEMORY INT_SRAM SIZE 1119
                 	#pragma AVRPART MEMORY INT_SRAM START_ADDR 0x60
                 
                 	#define CALL_SUPPORTED 1
                 
                 	.LISTMAC
                 	.EQU UDRE=0x5
                 	.EQU RXC=0x7
                 	.EQU USR=0xB
                 	.EQU UDR=0xC
                 	.EQU SPSR=0xE
                 	.EQU SPDR=0xF
                 	.EQU EERE=0x0
                 	.EQU EEWE=0x1
                 	.EQU EEMWE=0x2
                 	.EQU EECR=0x1C
                 	.EQU EEDR=0x1D
                 	.EQU EEARL=0x1E
                 	.EQU EEARH=0x1F
                 	.EQU WDTCR=0x21
                 	.EQU MCUCR=0x35
                 	.EQU GICR=0x3B
                 	.EQU SPL=0x3D
                 	.EQU SPH=0x3E
                 	.EQU SREG=0x3F
                 
                 	.DEF R0X0=R0
                 	.DEF R0X1=R1
                 	.DEF R0X2=R2
                 	.DEF R0X3=R3
                 	.DEF R0X4=R4
                 	.DEF R0X5=R5
                 	.DEF R0X6=R6
                 	.DEF R0X7=R7
                 	.DEF R0X8=R8
                 	.DEF R0X9=R9
                 	.DEF R0XA=R10
                 	.DEF R0XB=R11
                 	.DEF R0XC=R12
                 	.DEF R0XD=R13
                 	.DEF R0XE=R14
                 	.DEF R0XF=R15
                 	.DEF R0X10=R16
                 	.DEF R0X11=R17
                 	.DEF R0X12=R18
                 	.DEF R0X13=R19
                 	.DEF R0X14=R20
                 	.DEF R0X15=R21
                 	.DEF R0X16=R22
                 	.DEF R0X17=R23
                 	.DEF R0X18=R24
                 	.DEF R0X19=R25
                 	.DEF R0X1A=R26
                 	.DEF R0X1B=R27
                 	.DEF R0X1C=R28
                 	.DEF R0X1D=R29
                 	.DEF R0X1E=R30
                 	.DEF R0X1F=R31
                 
                 	.EQU __SRAM_START=0x0060
                 	.EQU __SRAM_END=0x045F
                 	.EQU __DSTACK_SIZE=0x0100
                 	.EQU __HEAP_SIZE=0x0000
                 	.EQU __CLEAR_SRAM_SIZE=__SRAM_END-__SRAM_START+1
                 
                 	.MACRO __CPD1N
                 	CPI  R30,LOW(@0)
                 	LDI  R26,HIGH(@0)
                 	CPC  R31,R26
                 	LDI  R26,BYTE3(@0)
                 	CPC  R22,R26
                 	LDI  R26,BYTE4(@0)
                 	CPC  R23,R26
                 	.ENDM
                 
                 	.MACRO __CPD2N
                 	CPI  R26,LOW(@0)
                 	LDI  R30,HIGH(@0)
                 	CPC  R27,R30
                 	LDI  R30,BYTE3(@0)
                 	CPC  R24,R30
                 	LDI  R30,BYTE4(@0)
                 	CPC  R25,R30
                 	.ENDM
                 
                 	.MACRO __CPWRR
                 	CP   R@0,R@2
                 	CPC  R@1,R@3
                 	.ENDM
                 
                 	.MACRO __CPWRN
                 	CPI  R@0,LOW(@2)
                 	LDI  R30,HIGH(@2)
                 	CPC  R@1,R30
                 	.ENDM
                 
                 	.MACRO __ADDB1MN
                 	SUBI R30,LOW(-@0-(@1))
                 	.ENDM
                 
                 	.MACRO __ADDB2MN
                 	SUBI R26,LOW(-@0-(@1))
                 	.ENDM
                 
                 	.MACRO __ADDW1MN
                 	SUBI R30,LOW(-@0-(@1))
                 	SBCI R31,HIGH(-@0-(@1))
                 	.ENDM
                 
                 	.MACRO __ADDW2MN
                 	SUBI R26,LOW(-@0-(@1))
                 	SBCI R27,HIGH(-@0-(@1))
                 	.ENDM
                 
                 	.MACRO __ADDW1FN
                 	SUBI R30,LOW(-2*@0-(@1))
                 	SBCI R31,HIGH(-2*@0-(@1))
                 	.ENDM
                 
                 	.MACRO __ADDD1FN
                 	SUBI R30,LOW(-2*@0-(@1))
                 	SBCI R31,HIGH(-2*@0-(@1))
                 	SBCI R22,BYTE3(-2*@0-(@1))
                 	.ENDM
                 
                 	.MACRO __ADDD1N
                 	SUBI R30,LOW(-@0)
                 	SBCI R31,HIGH(-@0)
                 	SBCI R22,BYTE3(-@0)
                 	SBCI R23,BYTE4(-@0)
                 	.ENDM
                 
                 	.MACRO __ADDD2N
                 	SUBI R26,LOW(-@0)
                 	SBCI R27,HIGH(-@0)
                 	SBCI R24,BYTE3(-@0)
                 	SBCI R25,BYTE4(-@0)
                 	.ENDM
                 
                 	.MACRO __SUBD1N
                 	SUBI R30,LOW(@0)
                 	SBCI R31,HIGH(@0)
                 	SBCI R22,BYTE3(@0)
                 	SBCI R23,BYTE4(@0)
                 	.ENDM
                 
                 	.MACRO __SUBD2N
                 	SUBI R26,LOW(@0)
                 	SBCI R27,HIGH(@0)
                 	SBCI R24,BYTE3(@0)
                 	SBCI R25,BYTE4(@0)
                 	.ENDM
                 
                 	.MACRO __ANDBMNN
                 	LDS  R30,@0+(@1)
                 	ANDI R30,LOW(@2)
                 	STS  @0+(@1),R30
                 	.ENDM
                 
                 	.MACRO __ANDWMNN
                 	LDS  R30,@0+(@1)
                 	ANDI R30,LOW(@2)
                 	STS  @0+(@1),R30
                 	LDS  R30,@0+(@1)+1
                 	ANDI R30,HIGH(@2)
                 	STS  @0+(@1)+1,R30
                 	.ENDM
                 
                 	.MACRO __ANDD1N
                 	ANDI R30,LOW(@0)
                 	ANDI R31,HIGH(@0)
                 	ANDI R22,BYTE3(@0)
                 	ANDI R23,BYTE4(@0)
                 	.ENDM
                 
                 	.MACRO __ANDD2N
                 	ANDI R26,LOW(@0)
                 	ANDI R27,HIGH(@0)
                 	ANDI R24,BYTE3(@0)
                 	ANDI R25,BYTE4(@0)
                 	.ENDM
                 
                 	.MACRO __ORBMNN
                 	LDS  R30,@0+(@1)
                 	ORI  R30,LOW(@2)
                 	STS  @0+(@1),R30
                 	.ENDM
                 
                 	.MACRO __ORWMNN
                 	LDS  R30,@0+(@1)
                 	ORI  R30,LOW(@2)
                 	STS  @0+(@1),R30
                 	LDS  R30,@0+(@1)+1
                 	ORI  R30,HIGH(@2)
                 	STS  @0+(@1)+1,R30
                 	.ENDM
                 
                 	.MACRO __ORD1N
                 	ORI  R30,LOW(@0)
                 	ORI  R31,HIGH(@0)
                 	ORI  R22,BYTE3(@0)
                 	ORI  R23,BYTE4(@0)
                 	.ENDM
                 
                 	.MACRO __ORD2N
                 	ORI  R26,LOW(@0)
                 	ORI  R27,HIGH(@0)
                 	ORI  R24,BYTE3(@0)
                 	ORI  R25,BYTE4(@0)
                 	.ENDM
                 
                 	.MACRO __DELAY_USB
                 	LDI  R24,LOW(@0)
                 __DELAY_USB_LOOP:
                 	DEC  R24
                 	BRNE __DELAY_USB_LOOP
                 	.ENDM
                 
                 	.MACRO __DELAY_USW
                 	LDI  R24,LOW(@0)
                 	LDI  R25,HIGH(@0)
                 __DELAY_USW_LOOP:
                 	SBIW R24,1
                 	BRNE __DELAY_USW_LOOP
                 	.ENDM
                 
                 	.MACRO __GETD1S
                 	LDD  R30,Y+@0
                 	LDD  R31,Y+@0+1
                 	LDD  R22,Y+@0+2
                 	LDD  R23,Y+@0+3
                 	.ENDM
                 
                 	.MACRO __GETD2S
                 	LDD  R26,Y+@0
                 	LDD  R27,Y+@0+1
                 	LDD  R24,Y+@0+2
                 	LDD  R25,Y+@0+3
                 	.ENDM
                 
                 	.MACRO __PUTD1S
                 	STD  Y+@0,R30
                 	STD  Y+@0+1,R31
                 	STD  Y+@0+2,R22
                 	STD  Y+@0+3,R23
                 	.ENDM
                 
                 	.MACRO __PUTD2S
                 	STD  Y+@0,R26
                 	STD  Y+@0+1,R27
                 	STD  Y+@0+2,R24
                 	STD  Y+@0+3,R25
                 	.ENDM
                 
                 	.MACRO __PUTDZ2
                 	STD  Z+@0,R26
                 	STD  Z+@0+1,R27
                 	STD  Z+@0+2,R24
                 	STD  Z+@0+3,R25
                 	.ENDM
                 
                 	.MACRO __CLRD1S
                 	STD  Y+@0,R30
                 	STD  Y+@0+1,R30
                 	STD  Y+@0+2,R30
                 	STD  Y+@0+3,R30
                 	.ENDM
                 
                 	.MACRO __POINTB1MN
                 	LDI  R30,LOW(@0+(@1))
                 	.ENDM
                 
                 	.MACRO __POINTW1MN
                 	LDI  R30,LOW(@0+(@1))
                 	LDI  R31,HIGH(@0+(@1))
                 	.ENDM
                 
                 	.MACRO __POINTD1M
                 	LDI  R30,LOW(@0)
                 	LDI  R31,HIGH(@0)
                 	LDI  R22,BYTE3(@0)
                 	LDI  R23,BYTE4(@0)
                 	.ENDM
                 
                 	.MACRO __POINTW1FN
                 	LDI  R30,LOW(2*@0+(@1))
                 	LDI  R31,HIGH(2*@0+(@1))
                 	.ENDM
                 
                 	.MACRO __POINTD1FN
                 	LDI  R30,LOW(2*@0+(@1))
                 	LDI  R31,HIGH(2*@0+(@1))
                 	LDI  R22,BYTE3(2*@0+(@1))
                 	LDI  R23,BYTE4(2*@0+(@1))
                 	.ENDM
                 
                 	.MACRO __POINTB2MN
                 	LDI  R26,LOW(@0+(@1))
                 	.ENDM
                 
                 	.MACRO __POINTW2MN
                 	LDI  R26,LOW(@0+(@1))
                 	LDI  R27,HIGH(@0+(@1))
                 	.ENDM
                 
                 	.MACRO __POINTW2FN
                 	LDI  R26,LOW(2*@0+(@1))
                 	LDI  R27,HIGH(2*@0+(@1))
                 	.ENDM
                 
                 	.MACRO __POINTD2FN
                 	LDI  R26,LOW(2*@0+(@1))
                 	LDI  R27,HIGH(2*@0+(@1))
                 	LDI  R24,BYTE3(2*@0+(@1))
                 	LDI  R25,BYTE4(2*@0+(@1))
                 	.ENDM
                 
                 	.MACRO __POINTBRM
                 	LDI  R@0,LOW(@1)
                 	.ENDM
                 
                 	.MACRO __POINTWRM
                 	LDI  R@0,LOW(@2)
                 	LDI  R@1,HIGH(@2)
                 	.ENDM
                 
                 	.MACRO __POINTBRMN
                 	LDI  R@0,LOW(@1+(@2))
                 	.ENDM
                 
                 	.MACRO __POINTWRMN
                 	LDI  R@0,LOW(@2+(@3))
                 	LDI  R@1,HIGH(@2+(@3))
                 	.ENDM
                 
                 	.MACRO __POINTWRFN
                 	LDI  R@0,LOW(@2*2+(@3))
                 	LDI  R@1,HIGH(@2*2+(@3))
                 	.ENDM
                 
                 	.MACRO __GETD1N
                 	LDI  R30,LOW(@0)
                 	LDI  R31,HIGH(@0)
                 	LDI  R22,BYTE3(@0)
                 	LDI  R23,BYTE4(@0)
                 	.ENDM
                 
                 	.MACRO __GETD2N
                 	LDI  R26,LOW(@0)
                 	LDI  R27,HIGH(@0)
                 	LDI  R24,BYTE3(@0)
                 	LDI  R25,BYTE4(@0)
                 	.ENDM
                 
                 	.MACRO __GETB1MN
                 	LDS  R30,@0+(@1)
                 	.ENDM
                 
                 	.MACRO __GETB1HMN
                 	LDS  R31,@0+(@1)
                 	.ENDM
                 
                 	.MACRO __GETW1MN
                 	LDS  R30,@0+(@1)
                 	LDS  R31,@0+(@1)+1
                 	.ENDM
                 
                 	.MACRO __GETD1MN
                 	LDS  R30,@0+(@1)
                 	LDS  R31,@0+(@1)+1
                 	LDS  R22,@0+(@1)+2
                 	LDS  R23,@0+(@1)+3
                 	.ENDM
                 
                 	.MACRO __GETBRMN
                 	LDS  R@0,@1+(@2)
                 	.ENDM
                 
                 	.MACRO __GETWRMN
                 	LDS  R@0,@2+(@3)
                 	LDS  R@1,@2+(@3)+1
                 	.ENDM
                 
                 	.MACRO __GETWRZ
                 	LDD  R@0,Z+@2
                 	LDD  R@1,Z+@2+1
                 	.ENDM
                 
                 	.MACRO __GETD2Z
                 	LDD  R26,Z+@0
                 	LDD  R27,Z+@0+1
                 	LDD  R24,Z+@0+2
                 	LDD  R25,Z+@0+3
                 	.ENDM
                 
                 	.MACRO __GETB2MN
                 	LDS  R26,@0+(@1)
                 	.ENDM
                 
                 	.MACRO __GETW2MN
                 	LDS  R26,@0+(@1)
                 	LDS  R27,@0+(@1)+1
                 	.ENDM
                 
                 	.MACRO __GETD2MN
                 	LDS  R26,@0+(@1)
                 	LDS  R27,@0+(@1)+1
                 	LDS  R24,@0+(@1)+2
                 	LDS  R25,@0+(@1)+3
                 	.ENDM
                 
                 	.MACRO __PUTB1MN
                 	STS  @0+(@1),R30
                 	.ENDM
                 
                 	.MACRO __PUTW1MN
                 	STS  @0+(@1),R30
                 	STS  @0+(@1)+1,R31
                 	.ENDM
                 
                 	.MACRO __PUTD1MN
                 	STS  @0+(@1),R30
                 	STS  @0+(@1)+1,R31
                 	STS  @0+(@1)+2,R22
                 	STS  @0+(@1)+3,R23
                 	.ENDM
                 
                 	.MACRO __PUTB1EN
                 	LDI  R26,LOW(@0+(@1))
                 	LDI  R27,HIGH(@0+(@1))
                 	CALL __EEPROMWRB
                 	.ENDM
                 
                 	.MACRO __PUTW1EN
                 	LDI  R26,LOW(@0+(@1))
                 	LDI  R27,HIGH(@0+(@1))
                 	CALL __EEPROMWRW
                 	.ENDM
                 
                 	.MACRO __PUTD1EN
                 	LDI  R26,LOW(@0+(@1))
                 	LDI  R27,HIGH(@0+(@1))
                 	CALL __EEPROMWRD
                 	.ENDM
                 
                 	.MACRO __PUTBR0MN
                 	STS  @0+(@1),R0
                 	.ENDM
                 
                 	.MACRO __PUTBMRN
                 	STS  @0+(@1),R@2
                 	.ENDM
                 
                 	.MACRO __PUTWMRN
                 	STS  @0+(@1),R@2
                 	STS  @0+(@1)+1,R@3
                 	.ENDM
                 
                 	.MACRO __PUTBZR
                 	STD  Z+@1,R@0
                 	.ENDM
                 
                 	.MACRO __PUTWZR
                 	STD  Z+@2,R@0
                 	STD  Z+@2+1,R@1
                 	.ENDM
                 
                 	.MACRO __GETW1R
                 	MOV  R30,R@0
                 	MOV  R31,R@1
                 	.ENDM
                 
                 	.MACRO __GETW2R
                 	MOV  R26,R@0
                 	MOV  R27,R@1
                 	.ENDM
                 
                 	.MACRO __GETWRN
                 	LDI  R@0,LOW(@2)
                 	LDI  R@1,HIGH(@2)
                 	.ENDM
                 
                 	.MACRO __PUTW1R
                 	MOV  R@0,R30
                 	MOV  R@1,R31
                 	.ENDM
                 
                 	.MACRO __PUTW2R
                 	MOV  R@0,R26
                 	MOV  R@1,R27
                 	.ENDM
                 
                 	.MACRO __ADDWRN
                 	SUBI R@0,LOW(-@2)
                 	SBCI R@1,HIGH(-@2)
                 	.ENDM
                 
                 	.MACRO __ADDWRR
                 	ADD  R@0,R@2
                 	ADC  R@1,R@3
                 	.ENDM
                 
                 	.MACRO __SUBWRN
                 	SUBI R@0,LOW(@2)
                 	SBCI R@1,HIGH(@2)
                 	.ENDM
                 
                 	.MACRO __SUBWRR
                 	SUB  R@0,R@2
                 	SBC  R@1,R@3
                 	.ENDM
                 
                 	.MACRO __ANDWRN
                 	ANDI R@0,LOW(@2)
                 	ANDI R@1,HIGH(@2)
                 	.ENDM
                 
                 	.MACRO __ANDWRR
                 	AND  R@0,R@2
                 	AND  R@1,R@3
                 	.ENDM
                 
                 	.MACRO __ORWRN
                 	ORI  R@0,LOW(@2)
                 	ORI  R@1,HIGH(@2)
                 	.ENDM
                 
                 	.MACRO __ORWRR
                 	OR   R@0,R@2
                 	OR   R@1,R@3
                 	.ENDM
                 
                 	.MACRO __EORWRR
                 	EOR  R@0,R@2
                 	EOR  R@1,R@3
                 	.ENDM
                 
                 	.MACRO __GETWRS
                 	LDD  R@0,Y+@2
                 	LDD  R@1,Y+@2+1
                 	.ENDM
                 
                 	.MACRO __PUTBSR
                 	STD  Y+@1,R@0
                 	.ENDM
                 
                 	.MACRO __PUTWSR
                 	STD  Y+@2,R@0
                 	STD  Y+@2+1,R@1
                 	.ENDM
                 
                 	.MACRO __MOVEWRR
                 	MOV  R@0,R@2
                 	MOV  R@1,R@3
                 	.ENDM
                 
                 	.MACRO __INWR
                 	IN   R@0,@2
                 	IN   R@1,@2+1
                 	.ENDM
                 
                 	.MACRO __OUTWR
                 	OUT  @2+1,R@1
                 	OUT  @2,R@0
                 	.ENDM
                 
                 	.MACRO __CALL1MN
                 	LDS  R30,@0+(@1)
                 	LDS  R31,@0+(@1)+1
                 	ICALL
                 	.ENDM
                 
                 	.MACRO __CALL1FN
                 	LDI  R30,LOW(2*@0+(@1))
                 	LDI  R31,HIGH(2*@0+(@1))
                 	CALL __GETW1PF
                 	ICALL
                 	.ENDM
                 
                 	.MACRO __CALL2EN
                 	LDI  R26,LOW(@0+(@1))
                 	LDI  R27,HIGH(@0+(@1))
                 	CALL __EEPROMRDW
                 	ICALL
                 	.ENDM
                 
                 	.MACRO __GETW1STACK
                 	IN   R26,SPL
                 	IN   R27,SPH
                 	ADIW R26,@0+1
                 	LD   R30,X+
                 	LD   R31,X
                 	.ENDM
                 
                 	.MACRO __GETD1STACK
                 	IN   R26,SPL
                 	IN   R27,SPH
                 	ADIW R26,@0+1
                 	LD   R30,X+
                 	LD   R31,X+
                 	LD   R22,X
                 	.ENDM
                 
                 	.MACRO __NBST
                 	BST  R@0,@1
                 	IN   R30,SREG
                 	LDI  R31,0x40
                 	EOR  R30,R31
                 	OUT  SREG,R30
                 	.ENDM
                 
                 
                 	.MACRO __PUTB1SN
                 	LDD  R26,Y+@0
                 	LDD  R27,Y+@0+1
                 	SUBI R26,LOW(-@1)
                 	SBCI R27,HIGH(-@1)
                 	ST   X,R30
                 	.ENDM
                 
                 	.MACRO __PUTW1SN
                 	LDD  R26,Y+@0
                 	LDD  R27,Y+@0+1
                 	SUBI R26,LOW(-@1)
                 	SBCI R27,HIGH(-@1)
                 	ST   X+,R30
                 	ST   X,R31
                 	.ENDM
                 
                 	.MACRO __PUTD1SN
                 	LDD  R26,Y+@0
                 	LDD  R27,Y+@0+1
                 	SUBI R26,LOW(-@1)
                 	SBCI R27,HIGH(-@1)
                 	CALL __PUTDP1
                 	.ENDM
                 
                 	.MACRO __PUTB1SNS
                 	LDD  R26,Y+@0
                 	LDD  R27,Y+@0+1
                 	ADIW R26,@1
                 	ST   X,R30
                 	.ENDM
                 
                 	.MACRO __PUTW1SNS
                 	LDD  R26,Y+@0
                 	LDD  R27,Y+@0+1
                 	ADIW R26,@1
                 	ST   X+,R30
                 	ST   X,R31
                 	.ENDM
                 
                 	.MACRO __PUTD1SNS
                 	LDD  R26,Y+@0
                 	LDD  R27,Y+@0+1
                 	ADIW R26,@1
                 	CALL __PUTDP1
                 	.ENDM
                 
                 	.MACRO __PUTB1PMN
                 	LDS  R26,@0
                 	LDS  R27,@0+1
                 	SUBI R26,LOW(-@1)
                 	SBCI R27,HIGH(-@1)
                 	ST   X,R30
                 	.ENDM
                 
                 	.MACRO __PUTW1PMN
                 	LDS  R26,@0
                 	LDS  R27,@0+1
                 	SUBI R26,LOW(-@1)
                 	SBCI R27,HIGH(-@1)
                 	ST   X+,R30
                 	ST   X,R31
                 	.ENDM
                 
                 	.MACRO __PUTD1PMN
                 	LDS  R26,@0
                 	LDS  R27,@0+1
                 	SUBI R26,LOW(-@1)
                 	SBCI R27,HIGH(-@1)
                 	CALL __PUTDP1
                 	.ENDM
                 
                 	.MACRO __PUTB1PMNS
                 	LDS  R26,@0
                 	LDS  R27,@0+1
                 	ADIW R26,@1
                 	ST   X,R30
                 	.ENDM
                 
                 	.MACRO __PUTW1PMNS
                 	LDS  R26,@0
                 	LDS  R27,@0+1
                 	ADIW R26,@1
                 	ST   X+,R30
                 	ST   X,R31
                 	.ENDM
                 
                 	.MACRO __PUTD1PMNS
                 	LDS  R26,@0
                 	LDS  R27,@0+1
                 	ADIW R26,@1
                 	CALL __PUTDP1
                 	.ENDM
                 
                 	.MACRO __PUTB1RN
                 	MOVW R26,R@0
                 	SUBI R26,LOW(-@1)
                 	SBCI R27,HIGH(-@1)
                 	ST   X,R30
                 	.ENDM
                 
                 	.MACRO __PUTW1RN
                 	MOVW R26,R@0
                 	SUBI R26,LOW(-@1)
                 	SBCI R27,HIGH(-@1)
                 	ST   X+,R30
                 	ST   X,R31
                 	.ENDM
                 
                 	.MACRO __PUTD1RN
                 	MOVW R26,R@0
                 	SUBI R26,LOW(-@1)
                 	SBCI R27,HIGH(-@1)
                 	CALL __PUTDP1
                 	.ENDM
                 
                 	.MACRO __PUTB1RNS
                 	MOVW R26,R@0
                 	ADIW R26,@1
                 	ST   X,R30
                 	.ENDM
                 
                 	.MACRO __PUTW1RNS
                 	MOVW R26,R@0
                 	ADIW R26,@1
                 	ST   X+,R30
                 	ST   X,R31
                 	.ENDM
                 
                 	.MACRO __PUTD1RNS
                 	MOVW R26,R@0
                 	ADIW R26,@1
                 	CALL __PUTDP1
                 	.ENDM
                 
                 	.MACRO __PUTB1RON
                 	MOV  R26,R@0
                 	MOV  R27,R@1
                 	SUBI R26,LOW(-@2)
                 	SBCI R27,HIGH(-@2)
                 	ST   X,R30
                 	.ENDM
                 
                 	.MACRO __PUTW1RON
                 	MOV  R26,R@0
                 	MOV  R27,R@1
                 	SUBI R26,LOW(-@2)
                 	SBCI R27,HIGH(-@2)
                 	ST   X+,R30
                 	ST   X,R31
                 	.ENDM
                 
                 	.MACRO __PUTD1RON
                 	MOV  R26,R@0
                 	MOV  R27,R@1
                 	SUBI R26,LOW(-@2)
                 	SBCI R27,HIGH(-@2)
                 	CALL __PUTDP1
                 	.ENDM
                 
                 	.MACRO __PUTB1RONS
                 	MOV  R26,R@0
                 	MOV  R27,R@1
                 	ADIW R26,@2
                 	ST   X,R30
                 	.ENDM
                 
                 	.MACRO __PUTW1RONS
                 	MOV  R26,R@0
                 	MOV  R27,R@1
                 	ADIW R26,@2
                 	ST   X+,R30
                 	ST   X,R31
                 	.ENDM
                 
                 	.MACRO __PUTD1RONS
                 	MOV  R26,R@0
                 	MOV  R27,R@1
                 	ADIW R26,@2
                 	CALL __PUTDP1
                 	.ENDM
                 
                 
                 	.MACRO __GETB1SX
                 	MOVW R30,R28
                 	SUBI R30,LOW(-@0)
                 	SBCI R31,HIGH(-@0)
                 	LD   R30,Z
                 	.ENDM
                 
                 	.MACRO __GETB1HSX
                 	MOVW R30,R28
                 	SUBI R30,LOW(-@0)
                 	SBCI R31,HIGH(-@0)
                 	LD   R31,Z
                 	.ENDM
                 
                 	.MACRO __GETW1SX
                 	MOVW R30,R28
                 	SUBI R30,LOW(-@0)
                 	SBCI R31,HIGH(-@0)
                 	LD   R0,Z+
                 	LD   R31,Z
                 	MOV  R30,R0
                 	.ENDM
                 
                 	.MACRO __GETD1SX
                 	MOVW R30,R28
                 	SUBI R30,LOW(-@0)
                 	SBCI R31,HIGH(-@0)
                 	LD   R0,Z+
                 	LD   R1,Z+
                 	LD   R22,Z+
                 	LD   R23,Z
                 	MOVW R30,R0
                 	.ENDM
                 
                 	.MACRO __GETB2SX
                 	MOVW R26,R28
                 	SUBI R26,LOW(-@0)
                 	SBCI R27,HIGH(-@0)
                 	LD   R26,X
                 	.ENDM
                 
                 	.MACRO __GETW2SX
                 	MOVW R26,R28
                 	SUBI R26,LOW(-@0)
                 	SBCI R27,HIGH(-@0)
                 	LD   R0,X+
                 	LD   R27,X
                 	MOV  R26,R0
                 	.ENDM
                 
                 	.MACRO __GETD2SX
                 	MOVW R26,R28
                 	SUBI R26,LOW(-@0)
                 	SBCI R27,HIGH(-@0)
                 	LD   R0,X+
                 	LD   R1,X+
                 	LD   R24,X+
                 	LD   R25,X
                 	MOVW R26,R0
                 	.ENDM
                 
                 	.MACRO __GETBRSX
                 	MOVW R30,R28
                 	SUBI R30,LOW(-@1)
                 	SBCI R31,HIGH(-@1)
                 	LD   R@0,Z
                 	.ENDM
                 
                 	.MACRO __GETWRSX
                 	MOVW R30,R28
                 	SUBI R30,LOW(-@2)
                 	SBCI R31,HIGH(-@2)
                 	LD   R@0,Z+
                 	LD   R@1,Z
                 	.ENDM
                 
                 	.MACRO __GETBRSX2
                 	MOVW R26,R28
                 	SUBI R26,LOW(-@1)
                 	SBCI R27,HIGH(-@1)
                 	LD   R@0,X
                 	.ENDM
                 
                 	.MACRO __GETWRSX2
                 	MOVW R26,R28
                 	SUBI R26,LOW(-@2)
                 	SBCI R27,HIGH(-@2)
                 	LD   R@0,X+
                 	LD   R@1,X
                 	.ENDM
                 
                 	.MACRO __LSLW8SX
                 	MOVW R30,R28
                 	SUBI R30,LOW(-@0)
                 	SBCI R31,HIGH(-@0)
                 	LD   R31,Z
                 	CLR  R30
                 	.ENDM
                 
                 	.MACRO __PUTB1SX
                 	MOVW R26,R28
                 	SUBI R26,LOW(-@0)
                 	SBCI R27,HIGH(-@0)
                 	ST   X,R30
                 	.ENDM
                 
                 	.MACRO __PUTW1SX
                 	MOVW R26,R28
                 	SUBI R26,LOW(-@0)
                 	SBCI R27,HIGH(-@0)
                 	ST   X+,R30
                 	ST   X,R31
                 	.ENDM
                 
                 	.MACRO __PUTD1SX
                 	MOVW R26,R28
                 	SUBI R26,LOW(-@0)
                 	SBCI R27,HIGH(-@0)
                 	ST   X+,R30
                 	ST   X+,R31
                 	ST   X+,R22
                 	ST   X,R23
                 	.ENDM
                 
                 	.MACRO __CLRW1SX
                 	MOVW R26,R28
                 	SUBI R26,LOW(-@0)
                 	SBCI R27,HIGH(-@0)
                 	ST   X+,R30
                 	ST   X,R30
                 	.ENDM
                 
                 	.MACRO __CLRD1SX
                 	MOVW R26,R28
                 	SUBI R26,LOW(-@0)
                 	SBCI R27,HIGH(-@0)
                 	ST   X+,R30
                 	ST   X+,R30
                 	ST   X+,R30
                 	ST   X,R30
                 	.ENDM
                 
                 	.MACRO __PUTB2SX
                 	MOVW R30,R28
                 	SUBI R30,LOW(-@0)
                 	SBCI R31,HIGH(-@0)
                 	ST   Z,R26
                 	.ENDM
                 
                 	.MACRO __PUTW2SX
                 	MOVW R30,R28
                 	SUBI R30,LOW(-@0)
                 	SBCI R31,HIGH(-@0)
                 	ST   Z+,R26
                 	ST   Z,R27
                 	.ENDM
                 
                 	.MACRO __PUTD2SX
                 	MOVW R30,R28
                 	SUBI R30,LOW(-@0)
                 	SBCI R31,HIGH(-@0)
                 	ST   Z+,R26
                 	ST   Z+,R27
                 	ST   Z+,R24
                 	ST   Z,R25
                 	.ENDM
                 
                 	.MACRO __PUTBSRX
                 	MOVW R30,R28
                 	SUBI R30,LOW(-@1)
                 	SBCI R31,HIGH(-@1)
                 	ST   Z,R@0
                 	.ENDM
                 
                 	.MACRO __PUTWSRX
                 	MOVW R30,R28
                 	SUBI R30,LOW(-@2)
                 	SBCI R31,HIGH(-@2)
                 	ST   Z+,R@0
                 	ST   Z,R@1
                 	.ENDM
                 
                 	.MACRO __PUTB1SNX
                 	MOVW R26,R28
                 	SUBI R26,LOW(-@0)
                 	SBCI R27,HIGH(-@0)
                 	LD   R0,X+
                 	LD   R27,X
                 	MOV  R26,R0
                 	SUBI R26,LOW(-@1)
                 	SBCI R27,HIGH(-@1)
                 	ST   X,R30
                 	.ENDM
                 
                 	.MACRO __PUTW1SNX
                 	MOVW R26,R28
                 	SUBI R26,LOW(-@0)
                 	SBCI R27,HIGH(-@0)
                 	LD   R0,X+
                 	LD   R27,X
                 	MOV  R26,R0
                 	SUBI R26,LOW(-@1)
                 	SBCI R27,HIGH(-@1)
                 	ST   X+,R30
                 	ST   X,R31
                 	.ENDM
                 
                 	.MACRO __PUTD1SNX
                 	MOVW R26,R28
                 	SUBI R26,LOW(-@0)
                 	SBCI R27,HIGH(-@0)
                 	LD   R0,X+
                 	LD   R27,X
                 	MOV  R26,R0
                 	SUBI R26,LOW(-@1)
                 	SBCI R27,HIGH(-@1)
                 	ST   X+,R30
                 	ST   X+,R31
                 	ST   X+,R22
                 	ST   X,R23
                 	.ENDM
                 
                 	.MACRO __MULBRR
                 	MULS R@0,R@1
                 	MOVW R30,R0
                 	.ENDM
                 
                 	.MACRO __MULBRRU
                 	MUL  R@0,R@1
                 	MOVW R30,R0
                 	.ENDM
                 
                 	.MACRO __MULBRR0
                 	MULS R@0,R@1
                 	.ENDM
                 
                 	.MACRO __MULBRRU0
                 	MUL  R@0,R@1
                 	.ENDM
                 
                 	.MACRO __MULBNWRU
                 	LDI  R26,@2
                 	MUL  R26,R@0
                 	MOVW R30,R0
                 	MUL  R26,R@1
                 	ADD  R31,R0
                 	.ENDM
                 
                 ;NAME DEFINITIONS FOR GLOBAL VARIABLES ALLOCATED TO REGISTERS
                 	.DEF _temp_control=R5
                 	.DEF _bias=R4
                 	.DEF _Vop=R7
                 	.DEF _disp_config=R6
                 	.DEF _LcdCacheIdx=R8
                 	.DEF __outTemperature=R10
                 	.DEF __internalTemperature=R12
                 
                 	.CSEG
                 	.ORG 0x00
                 
                 ;START OF CODE MARKER
                 __START_OF_CODE:
                 
                 ;INTERRUPT VECTORS
000000 940c 046a 	JMP  __RESET
000002 940c 0af1 	JMP  _ext_int0_isr
000004 940c 0af6 	JMP  _ext_int1_isr
000006 940c 0000 	JMP  0x00
000008 940c 0b38 	JMP  _timer2_ovf_isr
00000a 940c 0000 	JMP  0x00
00000c 940c 0000 	JMP  0x00
00000e 940c 0000 	JMP  0x00
000010 940c 0b1d 	JMP  _timer1_ovf_isr
000012 940c 0af9 	JMP  _timer0_ovf_isr
000014 940c 0000 	JMP  0x00
000016 940c 0000 	JMP  0x00
000018 940c 0000 	JMP  0x00
00001a 940c 0000 	JMP  0x00
00001c 940c 0000 	JMP  0x00
00001e 940c 0000 	JMP  0x00
000020 940c 0000 	JMP  0x00
000022 940c 0000 	JMP  0x00
000024 940c 0000 	JMP  0x00
000026 940c 0000 	JMP  0x00
000028 940c 0000 	JMP  0x00
                 
                 _table:
00002a 0000
00002b 0000
00002c 0000
00002d 0000      	.DB  0x0,0x0,0x0,0x0,0x0,0x0,0x0,0x0
00002e 0002
00002f 3c01
000030 4242
000031 2424      	.DB  0x2,0x0,0x1,0x3C,0x42,0x42,0x24,0x24
000032 ff92
000033 2492
000034 8000
000035 20e0      	.DB  0x92,0xFF,0x92,0x24,0x0,0x80,0xE0,0x20
000036 233a
000037 0813
000038 6264
000039 4936      	.DB  0x3A,0x23,0x13,0x8,0x64,0x62,0x36,0x49
00003a 2255
00003b 0050
00003c 0305
00003d 0000      	.DB  0x55,0x22,0x50,0x0,0x5,0x3,0x0,0x0
00003e 1c00
00003f 4122
000040 0000
000041 2241      	.DB  0x0,0x1C,0x22,0x41,0x0,0x0,0x41,0x22
000042 001c
000043 0814
000044 083e
000045 0814      	.DB  0x1C,0x0,0x14,0x8,0x3E,0x8,0x14,0x8
000046 3e08
000047 0808
000048 5000
000049 0030      	.DB  0x8,0x3E,0x8,0x8,0x0,0x50,0x30,0x0
00004a 0800
00004b 0808
00004c 0808
00004d 6000      	.DB  0x0,0x8,0x8,0x8,0x8,0x8,0x0,0x60
00004e 0060
00004f 2000
000050 0810
000051 0204      	.DB  0x60,0x0,0x0,0x20,0x10,0x8,0x4,0x2
000052 0000
000053 0000
000054 0000
000055 5f00      	.DB  0x0,0x0,0x0,0x0,0x0,0x0,0x0,0x5F
000056 0000
000057 0700
000058 0700
000059 1400      	.DB  0x0,0x0,0x0,0x7,0x0,0x7,0x0,0x14
00005a 147f
00005b 147f
00005c 2a24
00005d 2a7f      	.DB  0x7F,0x14,0x7F,0x14,0x24,0x2A,0x7F,0x2A
00005e 2312
00005f 0813
000060 6264
000061 4936      	.DB  0x12,0x23,0x13,0x8,0x64,0x62,0x36,0x49
000062 2255
000063 0050
000064 0305
000065 0000      	.DB  0x55,0x22,0x50,0x0,0x5,0x3,0x0,0x0
000066 1c00
000067 4122
000068 0000
000069 2241      	.DB  0x0,0x1C,0x22,0x41,0x0,0x0,0x41,0x22
00006a 001c
00006b 0814
00006c 083e
00006d 0814      	.DB  0x1C,0x0,0x14,0x8,0x3E,0x8,0x14,0x8
00006e 3e08
00006f 0808
000070 5000
000071 0030      	.DB  0x8,0x3E,0x8,0x8,0x0,0x50,0x30,0x0
000072 0800
000073 0808
000074 0808
000075 6000      	.DB  0x0,0x8,0x8,0x8,0x8,0x8,0x0,0x60
000076 0060
000077 2000
000078 0810
000079 0204      	.DB  0x60,0x0,0x0,0x20,0x10,0x8,0x4,0x2
00007a 0000
00007b 0000
00007c 8100
00007d 0000      	.DB  0x0,0x0,0x0,0x0,0x0,0x81,0x0,0x0
00007e 8100
00007f 0700
000080 0700
000081 1400      	.DB  0x0,0x81,0x0,0x7,0x0,0x7,0x0,0x14
000082 147f
000083 147f
000084 2a24
000085 2a7f      	.DB  0x7F,0x14,0x7F,0x14,0x24,0x2A,0x7F,0x2A
000086 2312
000087 0813
000088 6264
000089 4936      	.DB  0x12,0x23,0x13,0x8,0x64,0x62,0x36,0x49
00008a 2255
00008b 0050
00008c 0305
00008d 0000      	.DB  0x55,0x22,0x50,0x0,0x5,0x3,0x0,0x0
00008e 1c00
00008f 4122
000090 0000
000091 2241      	.DB  0x0,0x1C,0x22,0x41,0x0,0x0,0x41,0x22
000092 001c
000093 0814
000094 083e
000095 0814      	.DB  0x1C,0x0,0x14,0x8,0x3E,0x8,0x14,0x8
000096 3e08
000097 0808
000098 5000
000099 0030      	.DB  0x8,0x3E,0x8,0x8,0x0,0x50,0x30,0x0
00009a 0800
00009b 0808
00009c 0808
00009d 6000      	.DB  0x0,0x8,0x8,0x8,0x8,0x8,0x0,0x60
00009e 0060
00009f 2000
0000a0 0810
0000a1 0204      	.DB  0x60,0x0,0x0,0x20,0x10,0x8,0x4,0x2
0000a2 513e
0000a3 4549
0000a4 003e
0000a5 7f42      	.DB  0x3E,0x51,0x49,0x45,0x3E,0x0,0x42,0x7F
0000a6 0040
0000a7 6142
0000a8 4951
0000a9 2146      	.DB  0x40,0x0,0x42,0x61,0x51,0x49,0x46,0x21
0000aa 4541
0000ab 314b
0000ac 1418
0000ad 7f12      	.DB  0x41,0x45,0x4B,0x31,0x18,0x14,0x12,0x7F
0000ae 2710
0000af 4545
0000b0 3945
0000b1 4a3c      	.DB  0x10,0x27,0x45,0x45,0x45,0x39,0x3C,0x4A
0000b2 4949
0000b3 0130
0000b4 0971
0000b5 0305      	.DB  0x49,0x49,0x30,0x1,0x71,0x9,0x5,0x3
0000b6 4936
0000b7 4949
0000b8 0636
0000b9 4949      	.DB  0x36,0x49,0x49,0x49,0x36,0x6,0x49,0x49
0000ba 1e29
0000bb 3600
0000bc 0036
0000bd 0000      	.DB  0x29,0x1E,0x0,0x36,0x36,0x0,0x0,0x0
0000be 3656
0000bf 0000
0000c0 1408
0000c1 4122      	.DB  0x56,0x36,0x0,0x0,0x8,0x14,0x22,0x41
0000c2 1400
0000c3 1414
0000c4 1414
0000c5 4100      	.DB  0x0,0x14,0x14,0x14,0x14,0x14,0x0,0x41
0000c6 1422
0000c7 0208
0000c8 5101
0000c9 0609      	.DB  0x22,0x14,0x8,0x2,0x1,0x51,0x9,0x6
0000ca 4932
0000cb 4179
0000cc 7e3e
0000cd 1111      	.DB  0x32,0x49,0x79,0x41,0x3E,0x7E,0x11,0x11
0000ce 7e11
0000cf 497f
0000d0 4949
0000d1 3e36      	.DB  0x11,0x7E,0x7F,0x49,0x49,0x49,0x36,0x3E
0000d2 4141
0000d3 2241
0000d4 417f
0000d5 2241      	.DB  0x41,0x41,0x41,0x22,0x7F,0x41,0x41,0x22
0000d6 7f1c
0000d7 4949
0000d8 4149
0000d9 097f      	.DB  0x1C,0x7F,0x49,0x49,0x49,0x41,0x7F,0x9
0000da 0909
0000db 3e01
0000dc 4941
0000dd 7a49      	.DB  0x9,0x9,0x1,0x3E,0x41,0x49,0x49,0x7A
0000de 087f
0000df 0808
0000e0 007f
0000e1 7f41      	.DB  0x7F,0x8,0x8,0x8,0x7F,0x0,0x41,0x7F
0000e2 0041
0000e3 4020
0000e4 3f41
0000e5 7f01      	.DB  0x41,0x0,0x20,0x40,0x41,0x3F,0x1,0x7F
0000e6 1408
0000e7 4122
0000e8 407f
0000e9 4040      	.DB  0x8,0x14,0x22,0x41,0x7F,0x40,0x40,0x40
0000ea 7f40
0000eb 0c02
0000ec 7f02
0000ed 047f      	.DB  0x40,0x7F,0x2,0xC,0x2,0x7F,0x7F,0x4
0000ee 1008
0000ef 3e7f
0000f0 4141
0000f1 3e41      	.DB  0x8,0x10,0x7F,0x3E,0x41,0x41,0x41,0x3E
0000f2 097f
0000f3 0909
0000f4 3e06
0000f5 5141      	.DB  0x7F,0x9,0x9,0x9,0x6,0x3E,0x41,0x51
0000f6 5e21
0000f7 097f
0000f8 2919
0000f9 4646      	.DB  0x21,0x5E,0x7F,0x9,0x19,0x29,0x46,0x46
0000fa 4949
0000fb 3149
0000fc 0101
0000fd 017f      	.DB  0x49,0x49,0x49,0x31,0x1,0x1,0x7F,0x1
0000fe 3f01
0000ff 4040
000100 3f40
000101 201f      	.DB  0x1,0x3F,0x40,0x40,0x40,0x3F,0x1F,0x20
000102 2040
000103 3f1f
000104 3840
000105 3f40      	.DB  0x40,0x20,0x1F,0x3F,0x40,0x38,0x40,0x3F
000106 1463
000107 1408
000108 0763
000109 7008      	.DB  0x63,0x14,0x8,0x14,0x63,0x7,0x8,0x70
00010a 0708
00010b 5161
00010c 4549
00010d 0043      	.DB  0x8,0x7,0x61,0x51,0x49,0x45,0x43,0x0
00010e 417f
00010f 0041
000110 0402
000111 1008      	.DB  0x7F,0x41,0x41,0x0,0x2,0x4,0x8,0x10
000112 0020
000113 4141
000114 007f
000115 0204      	.DB  0x20,0x0,0x41,0x41,0x7F,0x0,0x4,0x2
000116 0201
000117 4004
000118 4040
000119 4040      	.DB  0x1,0x2,0x4,0x40,0x40,0x40,0x40,0x40
00011a 0100
00011b 0402
00011c 2000
00011d 5454      	.DB  0x0,0x1,0x2,0x4,0x0,0x20,0x54,0x54
00011e 7854
00011f 487f
000120 4444
000121 3838      	.DB  0x54,0x78,0x7F,0x48,0x44,0x44,0x38,0x38
000122 4444
000123 2044
000124 4438
000125 4844      	.DB  0x44,0x44,0x44,0x20,0x38,0x44,0x44,0x48
000126 387f
000127 5454
000128 1854
000129 7e08      	.DB  0x7F,0x38,0x54,0x54,0x54,0x18,0x8,0x7E
00012a 0109
00012b 0c02
00012c 5252
00012d 3e52      	.DB  0x9,0x1,0x2,0xC,0x52,0x52,0x52,0x3E
00012e 087f
00012f 0404
000130 0078
000131 7d44      	.DB  0x7F,0x8,0x4,0x4,0x78,0x0,0x44,0x7D
000132 0040
000133 4020
000134 3d44
000135 7f00      	.DB  0x40,0x0,0x20,0x40,0x44,0x3D,0x0,0x7F
000136 2810
000137 0044
000138 4100
000139 407f      	.DB  0x10,0x28,0x44,0x0,0x0,0x41,0x7F,0x40
00013a 7c00
00013b 1804
00013c 7804
00013d 087c      	.DB  0x0,0x7C,0x4,0x18,0x4,0x78,0x7C,0x8
00013e 0404
00013f 3878
000140 4444
000141 3844      	.DB  0x4,0x4,0x78,0x38,0x44,0x44,0x44,0x38
000142 147c
000143 1414
000144 0808
000145 1414      	.DB  0x7C,0x14,0x14,0x14,0x8,0x8,0x14,0x14
000146 7c18
000147 087c
000148 0404
000149 4808      	.DB  0x18,0x7C,0x7C,0x8,0x4,0x4,0x8,0x48
00014a 5454
00014b 2054
00014c 3f04
00014d 4044      	.DB  0x54,0x54,0x54,0x20,0x4,0x3F,0x44,0x40
00014e 3c20
00014f 4040
000150 7c20
000151 201c      	.DB  0x20,0x3C,0x40,0x40,0x20,0x7C,0x1C,0x20
000152 2040
000153 3c1c
000154 3040
000155 3c40      	.DB  0x40,0x20,0x1C,0x3C,0x40,0x30,0x40,0x3C
000156 2844
000157 2810
000158 0c44
000159 5050      	.DB  0x44,0x28,0x10,0x28,0x44,0xC,0x50,0x50
00015a 3c50
00015b 6444
00015c 4c54
00015d 0044      	.DB  0x50,0x3C,0x44,0x64,0x54,0x4C,0x44,0x0
00015e 3608
00015f 0041
000160 0000
000161 007f      	.DB  0x8,0x36,0x41,0x0,0x0,0x0,0x7F,0x0
000162 0000
000163 3641
000164 0008
000165 0810      	.DB  0x0,0x0,0x41,0x36,0x8,0x0,0x10,0x8
000166 1008
000167 7808
000168 4146
000169 7846      	.DB  0x8,0x10,0x8,0x78,0x46,0x41,0x46,0x78
00016a 0000
00016b 0000
00016c 0000
00016d 5f00      	.DB  0x0,0x0,0x0,0x0,0x0,0x0,0x0,0x5F
00016e 0000
00016f 0700
000170 0700
000171 1400      	.DB  0x0,0x0,0x0,0x7,0x0,0x7,0x0,0x14
000172 147f
000173 147f
000174 2a24
000175 2a7f      	.DB  0x7F,0x14,0x7F,0x14,0x24,0x2A,0x7F,0x2A
000176 2312
000177 0813
000178 6264
000179 4936      	.DB  0x12,0x23,0x13,0x8,0x64,0x62,0x36,0x49
00017a 2255
00017b 0050
00017c 0305
00017d 0000      	.DB  0x55,0x22,0x50,0x0,0x5,0x3,0x0,0x0
00017e 1c00
00017f 4122
000180 0000
000181 2241      	.DB  0x0,0x1C,0x22,0x41,0x0,0x0,0x41,0x22
000182 001c
000183 0814
000184 083e
000185 0814      	.DB  0x1C,0x0,0x14,0x8,0x3E,0x8,0x14,0x8
000186 3e08
000187 0808
000188 5000
000189 0030      	.DB  0x8,0x3E,0x8,0x8,0x0,0x50,0x30,0x0
00018a 0800
00018b 0808
00018c 0808
00018d 6000      	.DB  0x0,0x8,0x8,0x8,0x8,0x8,0x0,0x60
00018e 0060
00018f 2000
000190 0810
000191 0204      	.DB  0x60,0x0,0x0,0x20,0x10,0x8,0x4,0x2
000192 0000
000193 0000
000194 0000
000195 5f00      	.DB  0x0,0x0,0x0,0x0,0x0,0x0,0x0,0x5F
000196 0000
000197 0700
000198 0700
000199 1400      	.DB  0x0,0x0,0x0,0x7,0x0,0x7,0x0,0x14
00019a 147f
00019b 147f
00019c 2a24
00019d 2a7f      	.DB  0x7F,0x14,0x7F,0x14,0x24,0x2A,0x7F,0x2A
00019e 2312
00019f 0813
0001a0 6264
0001a1 4936      	.DB  0x12,0x23,0x13,0x8,0x64,0x62,0x36,0x49
0001a2 2255
0001a3 0050
0001a4 0305
0001a5 0000      	.DB  0x55,0x22,0x50,0x0,0x5,0x3,0x0,0x0
0001a6 1c00
0001a7 4122
0001a8 0000
0001a9 2241      	.DB  0x0,0x1C,0x22,0x41,0x0,0x0,0x41,0x22
0001aa 001c
0001ab 0814
0001ac 083e
0001ad 0814      	.DB  0x1C,0x0,0x14,0x8,0x3E,0x8,0x14,0x8
0001ae 3e08
0001af 0808
0001b0 5000
0001b1 0030      	.DB  0x8,0x3E,0x8,0x8,0x0,0x50,0x30,0x0
0001b2 0800
0001b3 0808
0001b4 0808
0001b5 6000      	.DB  0x0,0x8,0x8,0x8,0x8,0x8,0x0,0x60
0001b6 0060
0001b7 2000
0001b8 0810
0001b9 0204      	.DB  0x60,0x0,0x0,0x20,0x10,0x8,0x4,0x2
0001ba 0000
0001bb 0000
0001bc 0000
0001bd 5f00      	.DB  0x0,0x0,0x0,0x0,0x0,0x0,0x0,0x5F
0001be 0000
0001bf 0700
0001c0 0700
0001c1 1400      	.DB  0x0,0x0,0x0,0x7,0x0,0x7,0x0,0x14
0001c2 147f
0001c3 147f
0001c4 2a24
0001c5 2a7f      	.DB  0x7F,0x14,0x7F,0x14,0x24,0x2A,0x7F,0x2A
0001c6 2312
0001c7 0813
0001c8 6264
0001c9 4936      	.DB  0x12,0x23,0x13,0x8,0x64,0x62,0x36,0x49
0001ca 2255
0001cb 0050
0001cc 0305
0001cd 0000      	.DB  0x55,0x22,0x50,0x0,0x5,0x3,0x0,0x0
0001ce 1c00
0001cf 4122
0001d0 0000
0001d1 2241      	.DB  0x0,0x1C,0x22,0x41,0x0,0x0,0x41,0x22
0001d2 001c
0001d3 0814
0001d4 083e
0001d5 0814      	.DB  0x1C,0x0,0x14,0x8,0x3E,0x8,0x14,0x8
0001d6 3e08
0001d7 0808
0001d8 5000
0001d9 0030      	.DB  0x8,0x3E,0x8,0x8,0x0,0x50,0x30,0x0
0001da 0800
0001db 0808
0001dc 0808
0001dd 6000      	.DB  0x0,0x8,0x8,0x8,0x8,0x8,0x0,0x60
0001de 0060
0001df 2000
0001e0 0810
0001e1 0204      	.DB  0x60,0x0,0x0,0x20,0x10,0x8,0x4,0x2
0001e2 513e
0001e3 4549
0001e4 003e
0001e5 7f42      	.DB  0x3E,0x51,0x49,0x45,0x3E,0x0,0x42,0x7F
0001e6 0040
0001e7 6142
0001e8 4951
0001e9 2146      	.DB  0x40,0x0,0x42,0x61,0x51,0x49,0x46,0x21
0001ea 4541
0001eb 314b
0001ec 1418
0001ed 7f12      	.DB  0x41,0x45,0x4B,0x31,0x18,0x14,0x12,0x7F
0001ee 2710
0001ef 4545
0001f0 3945
0001f1 4a3c      	.DB  0x10,0x27,0x45,0x45,0x45,0x39,0x3C,0x4A
0001f2 4949
0001f3 0130
0001f4 0971
0001f5 0305      	.DB  0x49,0x49,0x30,0x1,0x71,0x9,0x5,0x3
0001f6 4936
0001f7 4949
0001f8 0636
0001f9 4949      	.DB  0x36,0x49,0x49,0x49,0x36,0x6,0x49,0x49
0001fa 1e29
0001fb 3600
0001fc 0036
0001fd 0000      	.DB  0x29,0x1E,0x0,0x36,0x36,0x0,0x0,0x0
0001fe 3656
0001ff 0000
000200 1408
000201 4122      	.DB  0x56,0x36,0x0,0x0,0x8,0x14,0x22,0x41
000202 1400
000203 1414
000204 1414
000205 4100      	.DB  0x0,0x14,0x14,0x14,0x14,0x14,0x0,0x41
000206 1422
000207 0208
000208 5101
000209 0609      	.DB  0x22,0x14,0x8,0x2,0x1,0x51,0x9,0x6
00020a 117e
00020b 1111
00020c 7f7e
00020d 4949      	.DB  0x7E,0x11,0x11,0x11,0x7E,0x7F,0x49,0x49
00020e 3149
00020f 497f
000210 4949
000211 7f36      	.DB  0x49,0x31,0x7F,0x49,0x49,0x49,0x36,0x7F
000212 0101
000213 0301
000214 2970
000215 2127      	.DB  0x1,0x1,0x1,0x3,0x70,0x29,0x27,0x21
000216 7f7f
000217 4949
000218 4149
000219 0877      	.DB  0x7F,0x7F,0x49,0x49,0x49,0x41,0x77,0x8
00021a 087f
00021b 4177
00021c 4141
00021d 7649      	.DB  0x7F,0x8,0x77,0x41,0x41,0x41,0x49,0x76
00021e 107f
00021f 0408
000220 7f7f
000221 0910      	.DB  0x7F,0x10,0x8,0x4,0x7F,0x7F,0x10,0x9
000222 7f04
000223 087f
000224 2214
000225 2041      	.DB  0x4,0x7F,0x7F,0x8,0x14,0x22,0x41,0x20
000226 3f41
000227 7f01
000228 027f
000229 020c      	.DB  0x41,0x3F,0x1,0x7F,0x7F,0x2,0xC,0x2
00022a 7f7f
00022b 0808
00022c 7f08
00022d 413e      	.DB  0x7F,0x7F,0x8,0x8,0x8,0x7F,0x3E,0x41
00022e 4141
00022f 7f3e
000230 0101
000231 7f01      	.DB  0x41,0x41,0x3E,0x7F,0x1,0x1,0x1,0x7F
000232 097f
000233 0909
000234 3e06
000235 4141      	.DB  0x7F,0x9,0x9,0x9,0x6,0x3E,0x41,0x41
000236 2241
000237 0101
000238 017f
000239 4701      	.DB  0x41,0x22,0x1,0x1,0x7F,0x1,0x1,0x47
00023a 1028
00023b 0708
00023c 211e
00023d 217f      	.DB  0x28,0x10,0x8,0x7,0x1E,0x21,0x7F,0x21
00023e 631e
00023f 0814
000240 6314
000241 203f      	.DB  0x1E,0x63,0x14,0x8,0x14,0x63,0x3F,0x20
000242 2020
000243 075f
000244 0808
000245 7f08      	.DB  0x20,0x20,0x5F,0x7,0x8,0x8,0x8,0x7F
000246 407f
000247 407f
000248 3f7f
000249 3f20      	.DB  0x7F,0x40,0x7F,0x40,0x7F,0x3F,0x20,0x3F
00024a 5f20
00024b 7f01
00024c 4848
00024d 7f30      	.DB  0x20,0x5F,0x1,0x7F,0x48,0x48,0x30,0x7F
00024e 3048
00024f 7f00
000250 7f00
000251 4848      	.DB  0x48,0x30,0x0,0x7F,0x0,0x7F,0x48,0x48
000252 4130
000253 4141
000254 3e49
000255 087f      	.DB  0x30,0x41,0x41,0x41,0x49,0x3E,0x7F,0x8
000256 413e
000257 463e
000258 1929
000259 7f09      	.DB  0x3E,0x41,0x3E,0x46,0x29,0x19,0x9,0x7F
00025a 5420
00025b 5454
00025c 3c78
00025d 4a4a      	.DB  0x20,0x54,0x54,0x54,0x78,0x3C,0x4A,0x4A
00025e 3149
00025f 547c
000260 2854
000261 7c00      	.DB  0x49,0x31,0x7C,0x54,0x54,0x28,0x0,0x7C
000262 0404
000263 0c04
000264 2a72
000265 2226      	.DB  0x4,0x4,0x4,0xC,0x72,0x2A,0x26,0x22
000266 387e
000267 5454
000268 1854
000269 106c      	.DB  0x7E,0x38,0x54,0x54,0x54,0x18,0x6C,0x10
00026a 107c
00026b 446c
00026c 5444
00026d 3854      	.DB  0x7C,0x10,0x6C,0x44,0x44,0x54,0x54,0x38
00026e 207c
00026f 0810
000270 7c7c
000271 1221      	.DB  0x7C,0x20,0x10,0x8,0x7C,0x7C,0x21,0x12
000272 7c09
000273 107c
000274 4428
000275 2000      	.DB  0x9,0x7C,0x7C,0x10,0x28,0x44,0x0,0x20
000276 3c44
000277 7c04
000278 087c
000279 0810      	.DB  0x44,0x3C,0x4,0x7C,0x7C,0x8,0x10,0x8
00027a 7c7c
00027b 1010
00027c 7c10
00027d 4438      	.DB  0x7C,0x7C,0x10,0x10,0x10,0x7C,0x38,0x44
00027e 4444
00027f 7c38
000280 0404
000281 7c04      	.DB  0x44,0x44,0x38,0x7C,0x4,0x4,0x4,0x7C
000282 147c
000283 1414
000284 3808
000285 4444      	.DB  0x7C,0x14,0x14,0x14,0x8,0x38,0x44,0x44
000286 2044
000287 0404
000288 047c
000289 4404      	.DB  0x44,0x20,0x4,0x4,0x7C,0x4,0x4,0x44
00028a 1028
00028b 0408
00028c 1408
00028d 147e      	.DB  0x28,0x10,0x8,0x4,0x8,0x14,0x7E,0x14
00028e 4408
00028f 1028
000290 4428
000291 403c      	.DB  0x8,0x44,0x28,0x10,0x28,0x44,0x3C,0x40
000292 7c40
000293 0c40
000294 1010
000295 7c10      	.DB  0x40,0x7C,0x40,0xC,0x10,0x10,0x10,0x7C
000296 407c
000297 407c
000298 3c7c
000299 3c20      	.DB  0x7C,0x40,0x7C,0x40,0x7C,0x3C,0x20,0x3C
00029a 7c20
00029b 7c04
00029c 5050
00029d 7c20      	.DB  0x20,0x7C,0x4,0x7C,0x50,0x50,0x20,0x7C
00029e 2050
00029f 7c00
0002a0 7c00
0002a1 5050      	.DB  0x50,0x20,0x0,0x7C,0x0,0x7C,0x50,0x50
0002a2 2820
0002a3 4444
0002a4 3854
0002a5 107c      	.DB  0x20,0x28,0x44,0x44,0x54,0x38,0x7C,0x10
0002a6 4438
0002a7 4838
0002a8 3454
0002a9 7c14      	.DB  0x38,0x44,0x38,0x48,0x54,0x34,0x14,0x7C
                 _pic1:
0002aa 0000
0002ab 0000
0002ac 0000
0002ad 0000      	.DB  0x0,0x0,0x0,0x0,0x0,0x0,0x0,0x0
0002ae 0000
0002af 0000
0002b0 0000
0002b1 0000      	.DB  0x0,0x0,0x0,0x0,0x0,0x0,0x0,0x0
0002b2 0000
0002b3 0000
0002b4 0000
0002b5 0000      	.DB  0x0,0x0,0x0,0x0,0x0,0x0,0x0,0x0
0002b6 0000
0002b7 0000
0002b8 0000
0002b9 0000      	.DB  0x0,0x0,0x0,0x0,0x0,0x0,0x0,0x0
0002ba 0000
0002bb 0000
0002bc 0000
0002bd 0000      	.DB  0x0,0x0,0x0,0x0,0x0,0x0,0x0,0x0
0002be 0000
0002bf 0000
0002c0 0000
0002c1 0000      	.DB  0x0,0x0,0x0,0x0,0x0,0x0,0x0,0x0
0002c2 0000
0002c3 0000
0002c4 0000
0002c5 0000      	.DB  0x0,0x0,0x0,0x0,0x0,0x0,0x0,0x0
0002c6 0000
0002c7 0000
0002c8 0000
0002c9 0000      	.DB  0x0,0x0,0x0,0x0,0x0,0x0,0x0,0x0
0002ca 0000
0002cb 0000
0002cc 0000
0002cd 0000      	.DB  0x0,0x0,0x0,0x0,0x0,0x0,0x0,0x0
0002ce 0000
0002cf 0000
0002d0 0000
0002d1 0000      	.DB  0x0,0x0,0x0,0x0,0x0,0x0,0x0,0x0
0002d2 0000
0002d3 0000
0002d4 fc00
0002d5 0404      	.DB  0x0,0x0,0x0,0x0,0x0,0xFC,0x4,0x4
0002d6 fc04
0002d7 0808
0002d8 0000
0002d9 0000      	.DB  0x4,0xFC,0x8,0x8,0x0,0x0,0x0,0x0
0002da 0000
0002db 0000
0002dc 0000
0002dd 0000      	.DB  0x0,0x0,0x0,0x0,0x0,0x0,0x0,0x0
0002de 0000
0002df 0000
0002e0 0000
0002e1 0000      	.DB  0x0,0x0,0x0,0x0,0x0,0x0,0x0,0x0
0002e2 0000
0002e3 0000
0002e4 0000
0002e5 0000      	.DB  0x0,0x0,0x0,0x0,0x0,0x0,0x0,0x0
0002e6 0000
0002e7 0000
0002e8 0000
0002e9 0000      	.DB  0x0,0x0,0x0,0x0,0x0,0x0,0x0,0x0
0002ea 0000
0002eb 0000
0002ec 0000
0002ed 0000      	.DB  0x0,0x0,0x0,0x0,0x0,0x0,0x0,0x0
0002ee 0000
0002ef 0000
0002f0 0000
0002f1 0000      	.DB  0x0,0x0,0x0,0x0,0x0,0x0,0x0,0x0
0002f2 0000
0002f3 0000
0002f4 0000
0002f5 0000      	.DB  0x0,0x0,0x0,0x0,0x0,0x0,0x0,0x0
0002f6 0000
0002f7 0000
0002f8 0000
0002f9 0000      	.DB  0x0,0x0,0x0,0x0,0x0,0x0,0x0,0x0
0002fa fc00
0002fb 0404
0002fc 20fc
0002fd 0020      	.DB  0x0,0xFC,0x4,0x4,0xFC,0x20,0x20,0x0
0002fe ff00
0002ff 0000
000300 ff00
000301 0002      	.DB  0x0,0xFF,0x0,0x0,0x0,0xFF,0x2,0x0
000302 0000
000303 0000
000304 0000
000305 0000      	.DB  0x0,0x0,0x0,0x0,0x0,0x0,0x0,0x0
000306 0000
000307 0000
000308 0000
000309 0000      	.DB  0x0,0x0,0x0,0x0,0x0,0x0,0x0,0x0
00030a 0000
00030b 0000
00030c 0000
00030d 0000      	.DB  0x0,0x0,0x0,0x0,0x0,0x0,0x0,0x0
00030e 0000
00030f 0000
000310 0000
000311 0000      	.DB  0x0,0x0,0x0,0x0,0x0,0x0,0x0,0x0
000312 0000
000313 0000
000314 0000
000315 0000      	.DB  0x0,0x0,0x0,0x0,0x0,0x0,0x0,0x0
000316 0000
000317 0000
000318 0000
000319 0000      	.DB  0x0,0x0,0x0,0x0,0x0,0x0,0x0,0x0
00031a 0000
00031b 0000
00031c 0000
00031d 0000      	.DB  0x0,0x0,0x0,0x0,0x0,0x0,0x0,0x0
00031e 0000
00031f 0000
000320 0000
000321 0000      	.DB  0x0,0x0,0x0,0x0,0x0,0x0,0x0,0x0
000322 0000
000323 4040
000324 ff40
000325 0000      	.DB  0x0,0x0,0x40,0x40,0x40,0xFF,0x0,0x0
000326 04ff
000327 0004
000328 ff00
000329 0000      	.DB  0xFF,0x4,0x4,0x0,0x0,0xFF,0x0,0x0
00032a ff00
00032b 0181
00032c 0000
00032d 0000      	.DB  0x0,0xFF,0x81,0x1,0x0,0x0,0x0,0x0
00032e 0000
00032f 0000
000330 0000
000331 0000      	.DB  0x0,0x0,0x0,0x0,0x0,0x0,0x0,0x0
000332 0000
000333 0000
000334 0000
000335 0000      	.DB  0x0,0x0,0x0,0x0,0x0,0x0,0x0,0x0
000336 0000
000337 0000
000338 0000
000339 0000      	.DB  0x0,0x0,0x0,0x0,0x0,0x0,0x0,0x0
00033a 0000
00033b 0000
00033c 0000
00033d 0000      	.DB  0x0,0x0,0x0,0x0,0x0,0x0,0x0,0x0
00033e 0000
00033f 0000
000340 0000
000341 0000      	.DB  0x0,0x0,0x0,0x0,0x0,0x0,0x0,0x0
000342 0000
000343 0000
000344 0000
000345 0000      	.DB  0x0,0x0,0x0,0x0,0x0,0x0,0x0,0x0
000346 0000
000347 0000
000348 0000
000349 0000      	.DB  0x0,0x0,0x0,0x0,0x0,0x0,0x0,0x0
00034a 0000
00034b 0000
00034c 0000
00034d 1010      	.DB  0x0,0x0,0x0,0x0,0x0,0x0,0x10,0x10
00034e ff92
00034f 0000
000350 00ff
000351 0000      	.DB  0x92,0xFF,0x0,0x0,0xFF,0x0,0x0,0x0
000352 7f00
000353 4040
000354 7f40
000355 1010      	.DB  0x0,0x7F,0x40,0x40,0x40,0x7F,0x10,0x10
000356 0000
000357 0000
000358 0000
000359 0000      	.DB  0x0,0x0,0x0,0x0,0x0,0x0,0x0,0x0
00035a 0000
00035b 0000
00035c 0000
00035d 0000      	.DB  0x0,0x0,0x0,0x0,0x0,0x0,0x0,0x0
00035e 0000
00035f 0000
000360 0000
000361 0000      	.DB  0x0,0x0,0x0,0x0,0x0,0x0,0x0,0x0
000362 0000
000363 0000
000364 0000
000365 0000      	.DB  0x0,0x0,0x0,0x0,0x0,0x0,0x0,0x0
000366 0000
000367 0000
000368 0000
000369 0000      	.DB  0x0,0x0,0x0,0x0,0x0,0x0,0x0,0x0
00036a 0000
00036b 0000
00036c 0000
00036d 0000      	.DB  0x0,0x0,0x0,0x0,0x0,0x0,0x0,0x0
00036e 0000
00036f 0000
000370 0000
000371 0000      	.DB  0x0,0x0,0x0,0x0,0x0,0x0,0x0,0x0
000372 0000
000373 0000
000374 0000
000375 0000      	.DB  0x0,0x0,0x0,0x0,0x0,0x0,0x0,0x0
000376 0000
000377 0404
000378 ff24
000379 0000      	.DB  0x0,0x0,0x4,0x4,0x24,0xFF,0x0,0x0
00037a 00ff
00037b 0000
00037c ff80
00037d f9f9      	.DB  0xFF,0x0,0x0,0x0,0x80,0xFF,0xF9,0xF9
00037e fff9
00037f 2290
000380 003c
000381 0000      	.DB  0xF9,0xFF,0x90,0x22,0x3C,0x0,0x0,0x0
000382 0000
000383 0000
000384 0000
000385 0000      	.DB  0x0,0x0,0x0,0x0,0x0,0x0,0x0,0x0
000386 0000
000387 0000
000388 0000
000389 0000      	.DB  0x0,0x0,0x0,0x0,0x0,0x0,0x0,0x0
00038a 0000
00038b 0000
00038c 0000
00038d 0000      	.DB  0x0,0x0,0x0,0x0,0x0,0x0,0x0,0x0
00038e 0000
00038f 0000
000390 0000
000391 0000      	.DB  0x0,0x0,0x0,0x0,0x0,0x0,0x0,0x0
000392 0000
000393 0000
000394 0000
000395 0000      	.DB  0x0,0x0,0x0,0x0,0x0,0x0,0x0,0x0
000396 0000
000397 0000
000398 0000
000399 0000      	.DB  0x0,0x0,0x0,0x0,0x0,0x0,0x0,0x0
00039a 0000
00039b 0000
00039c 0000
00039d 0000      	.DB  0x0,0x0,0x0,0x0,0x0,0x0,0x0,0x0
00039e 0000
00039f 0000
0003a0 0000
0003a1 3e1c      	.DB  0x0,0x0,0x0,0x0,0x0,0x0,0x1C,0x3E
0003a2 f77f
0003a3 b781
0003a4 7ffd
0003a5 1c3e      	.DB  0x7F,0xF7,0x81,0xB7,0xFD,0x7F,0x3E,0x1C
                 _icon:
0003a6 ffff
0003a7 ffff
0003a8 ffff
0003a9 ffff      	.DB  0xFF,0xFF,0xFF,0xFF,0xFF,0xFF,0xFF,0xFF
0003aa ffff
0003ab ffff
0003ac ffff
0003ad ffff      	.DB  0xFF,0xFF,0xFF,0xFF,0xFF,0xFF,0xFF,0xFF
0003ae ffff
0003af 81ff
0003b0 91fd
0003b1 81fd      	.DB  0xFF,0xFF,0xFF,0x81,0xFD,0x91,0xFD,0x81
0003b2 c5b9
0003b3 b9c5
0003b4 8581
0003b5 85fd      	.DB  0xB9,0xC5,0xC5,0xB9,0x81,0x85,0xFD,0x85
0003b6 dd81
0003b7 ff81
0003b8 fe00
0003b9 9382      	.DB  0x81,0xDD,0x81,0xFF,0x0,0xFE,0x82,0x93
0003ba 9293
0003bb 8282
0003bc 8282
0003bd bb92      	.DB  0x93,0x92,0x82,0x82,0x82,0x82,0x92,0xBB
0003be 8293
0003bf 00fe
0003c0 0000
0003c1 ff00      	.DB  0x93,0x82,0xFE,0x0,0x0,0x0,0x0,0xFF
0003c2 dd81
0003c3 ff81
0003c4 4900
0003c5 1c2a      	.DB  0x81,0xDD,0x81,0xFF,0x0,0x49,0x2A,0x1C
0003c6 1c7f
0003c7 492a
0003c8 0000
0003c9 0000      	.DB  0x7F,0x1C,0x2A,0x49,0x0,0x0,0x0,0x0
0003ca 0000
0003cb 0000
0003cc 0000
0003cd 0000      	.DB  0x0,0x0,0x0,0x0,0x0,0x0,0x0,0x0
0003ce 0000
0003cf 0000
0003d0 0000
0003d1 0000      	.DB  0x0,0x0,0x0,0x0,0x0,0x0,0x0,0x0
0003d2 0000
0003d3 7e00
0003d4 1804
0003d5 7e20      	.DB  0x0,0x0,0x0,0x7E,0x4,0x18,0x20,0x7E
0003d6 3c00
0003d7 4242
0003d8 3c42
0003d9 7e00      	.DB  0x0,0x3C,0x42,0x42,0x42,0x3C,0x0,0x7E
0003da 3212
0003db 004c
0003dc 047e
0003dd 0408      	.DB  0x12,0x32,0x4C,0x0,0x7E,0x4,0x8,0x4
0003de 007e
0003df 1478
0003e0 1412
0003e1 0078      	.DB  0x7E,0x0,0x78,0x14,0x12,0x14,0x78,0x0
0003e2 407e
0003e3 4040
0003e4 0000
0003e5 0000      	.DB  0x7E,0x40,0x40,0x40,0x0,0x0,0x0,0x0
0003e6 0000
0003e7 0000
0003e8 0000
0003e9 7e00      	.DB  0x0,0x0,0x0,0x0,0x0,0x0,0x0,0x7E
0003ea 0808
0003eb 007e
0003ec 007a
0003ed 423c      	.DB  0x8,0x8,0x7E,0x0,0x7A,0x0,0x3C,0x42
0003ee 3452
0003ef 7e00
0003f0 0808
0003f1 007e      	.DB  0x52,0x34,0x0,0x7E,0x8,0x8,0x7E,0x0
0003f2 5e00
0003f3 0000
0003f4 0000
0003f5 0000      	.DB  0x0,0x5E,0x0,0x0,0x0,0x0,0x0,0x0
0003f6 0000
0003f7 0000
0003f8 0000
0003f9 0000      	.DB  0x0,0x0,0x0,0x0,0x0,0x0,0x0,0x0
0003fa 0000
0003fb 7e00
0003fc 4040
0003fd 0040      	.DB  0x0,0x0,0x0,0x7E,0x40,0x40,0x40,0x0
0003fe 423c
0003ff 4242
000400 003c
000401 207e      	.DB  0x3C,0x42,0x42,0x42,0x3C,0x0,0x7E,0x20
000402 2010
000403 007e
000404 5e00
000405 0000      	.DB  0x10,0x20,0x7E,0x0,0x0,0x5E,0x0,0x0
000406 0000
000407 0000
000408 0000      	.DB  0x0,0x0,0x0,0x0,0x0,0x0
                 _conv_delay_G100:
000409 0064
00040a 00c8
00040b 0190
00040c 0320      	.DB  0x64,0x0,0xC8,0x0,0x90,0x1,0x20,0x3
                 _bit_mask_G100:
00040d fff8
00040e fffc
00040f fffe
000410 ffff      	.DB  0xF8,0xFF,0xFC,0xFF,0xFE,0xFF,0xFF,0xFF
                 _tbl10_G101:
000411 2710
000412 03e8
000413 0064
000414 000a      	.DB  0x10,0x27,0xE8,0x3,0x64,0x0,0xA,0x0
000415 0001      	.DB  0x1,0x0
                 _tbl16_G101:
000416 1000
000417 0100
000418 0010
000419 0001      	.DB  0x0,0x10,0x0,0x1,0x10,0x0,0x1,0x0
                 
                 ;REGISTER BIT VARIABLES INITIALIZATION
                 __REG_BIT_VARS:
00041a 0000      	.DW  0x0000
                 
                 _0x7C:
D:\project\my\mega16_und_dr\mega16_und_dr\mega16_und_dr\List\alpha.asm(1375): warning: .cseg .db misalignment - padding zero byte
00041b 0001      	.DB  0x1
                 _0x7D:
D:\project\my\mega16_und_dr\mega16_und_dr\mega16_und_dr\List\alpha.asm(1377): warning: .cseg .db misalignment - padding zero byte
00041c 0002      	.DB  0x2
                 _0x7E:
00041d 0000
00041e 0001
00041f 0002
D:\project\my\mega16_und_dr\mega16_und_dr\mega16_und_dr\List\alpha.asm(1379): warning: .cseg .db misalignment - padding zero byte
000420 0003      	.DB  0x0,0x0,0x1,0x0,0x2,0x0,0x3
                 _0x7F:
D:\project\my\mega16_und_dr\mega16_und_dr\mega16_und_dr\List\alpha.asm(1381): warning: .cseg .db misalignment - padding zero byte
000421 0004      	.DB  0x4
                 _0xBE:
000422 0303
000423 5002      	.DB  0x3,0x3,0x2,0x50
                 _0x0:
000424 3325
000425 0075
000426 7525
000427 2500      	.DB  0x25,0x33,0x75,0x0,0x25,0x75,0x0,0x25
000428 6933
000429 0002
00042a 6854
00042b 7265      	.DB  0x33,0x69,0x2,0x0,0x54,0x68,0x65,0x72
00042c 6f6d
00042d 2500
00042e 6932
00042f 252e      	.DB  0x6D,0x6F,0x0,0x25,0x32,0x69,0x2E,0x25
000430 5669
000431 5600
000432 6c6f
000433 6d74      	.DB  0x69,0x56,0x0,0x56,0x6F,0x6C,0x74,0x6D
000434 7465
000435 7265
000436 2500
000437 6933      	.DB  0x65,0x74,0x65,0x72,0x0,0x25,0x33,0x69
000438 4b00
000439 2f6d
00043a 0068
00043b 7053      	.DB  0x0,0x4B,0x6D,0x2F,0x68,0x0,0x53,0x70
00043c 6565
00043d 6f64
00043e c500
00043f e0e1      	.DB  0x65,0x65,0x64,0x6F,0x0,0xC5,0xE1,0xE0
000440 e8f8
000441 3af2
000442 2500
000443 0069      	.DB  0xF8,0xE8,0xF2,0x3A,0x0,0x25,0x69,0x0
000444 e0e4
000445 f7f2
000446 eae8
000447 00e0      	.DB  0xE4,0xE0,0xF2,0xF7,0xE8,0xEA,0xE0,0x0
000448 f0ef
000449 e5ee
00044a e0e1
00044b eded      	.DB  0xEF,0xF0,0xEE,0xE5,0xE1,0xE0,0xED,0xED
00044c 3aee
00044d 2500
00044e 2e69
00044f 6925      	.DB  0xEE,0x3A,0x0,0x25,0x69,0x2E,0x25,0x69
000450 7200
000451 6d70
000452 6d2f
000453 5400      	.DB  0x0,0x72,0x70,0x6D,0x2F,0x6D,0x0,0x54
000454 6361
000455 6f68
D:\project\my\mega16_und_dr\mega16_und_dr\mega16_und_dr\List\alpha.asm(1397): warning: .cseg .db misalignment - padding zero byte
000456 0000      	.DB  0x61,0x63,0x68,0x6F,0x0
                 
                 __GLOBAL_INI_TBL:
000457 0001      	.DW  0x01
000458 0002      	.DW  0x02
000459 0834      	.DW  __REG_BIT_VARS*2
                 
00045a 0001      	.DW  0x01
00045b 0371      	.DW  _outTempDevice
00045c 0836      	.DW  _0x7C*2
                 
00045d 0001      	.DW  0x01
00045e 0372      	.DW  _internalTempDevice
00045f 0838      	.DW  _0x7D*2
                 
000460 0007      	.DW  0x07
000461 0390      	.DW  __arrTemplate
000462 083a      	.DW  _0x7E*2
                 
000463 0001      	.DW  0x01
000464 03a2      	.DW  __arrsize
000465 0842      	.DW  _0x7F*2
                 
000466 0004      	.DW  0x04
000467 0004      	.DW  0x04
000468 0844      	.DW  _0xBE*2
                 
                 _0xFFFFFFFF:
000469 0000      	.DW  0
                 
                 __RESET:
00046a 94f8      	CLI
00046b 27ee      	CLR  R30
00046c bbec      	OUT  EECR,R30
                 
                 ;INTERRUPT VECTORS ARE PLACED
                 ;AT THE START OF FLASH
00046d e0f1      	LDI  R31,1
00046e bffb      	OUT  GICR,R31
00046f bfeb      	OUT  GICR,R30
000470 bfe5      	OUT  MCUCR,R30
                 
                 ;DISABLE WATCHDOG
000471 e1f8      	LDI  R31,0x18
000472 bdf1      	OUT  WDTCR,R31
000473 bde1      	OUT  WDTCR,R30
                 
                 ;CLEAR R2-R14
000474 e08d      	LDI  R24,(14-2)+1
000475 e0a2      	LDI  R26,2
000476 27bb      	CLR  R27
                 __CLEAR_REG:
000477 93ed      	ST   X+,R30
000478 958a      	DEC  R24
000479 f7e9      	BRNE __CLEAR_REG
                 
                 ;CLEAR SRAM
00047a e080      	LDI  R24,LOW(__CLEAR_SRAM_SIZE)
00047b e094      	LDI  R25,HIGH(__CLEAR_SRAM_SIZE)
00047c e6a0      	LDI  R26,__SRAM_START
                 __CLEAR_SRAM:
00047d 93ed      	ST   X+,R30
00047e 9701      	SBIW R24,1
00047f f7e9      	BRNE __CLEAR_SRAM
                 
                 ;GLOBAL VARIABLES INITIALIZATION
000480 eaee      	LDI  R30,LOW(__GLOBAL_INI_TBL*2)
000481 e0f8      	LDI  R31,HIGH(__GLOBAL_INI_TBL*2)
                 __GLOBAL_INI_NEXT:
000482 9185      	LPM  R24,Z+
000483 9195      	LPM  R25,Z+
000484 9700      	SBIW R24,0
000485 f061      	BREQ __GLOBAL_INI_END
000486 91a5      	LPM  R26,Z+
000487 91b5      	LPM  R27,Z+
000488 9005      	LPM  R0,Z+
000489 9015      	LPM  R1,Z+
00048a 01bf      	MOVW R22,R30
00048b 01f0      	MOVW R30,R0
                 __GLOBAL_INI_LOOP:
00048c 9005      	LPM  R0,Z+
00048d 920d      	ST   X+,R0
00048e 9701      	SBIW R24,1
00048f f7e1      	BRNE __GLOBAL_INI_LOOP
000490 01fb      	MOVW R30,R22
000491 cff0      	RJMP __GLOBAL_INI_NEXT
                 __GLOBAL_INI_END:
                 
                 ;HARDWARE STACK POINTER INITIALIZATION
000492 e5ef      	LDI  R30,LOW(__SRAM_END-__HEAP_SIZE)
000493 bfed      	OUT  SPL,R30
000494 e0e4      	LDI  R30,HIGH(__SRAM_END-__HEAP_SIZE)
000495 bfee      	OUT  SPH,R30
                 
                 ;DATA STACK POINTER INITIALIZATION
000496 e6c0      	LDI  R28,LOW(__SRAM_START+__DSTACK_SIZE)
000497 e0d1      	LDI  R29,HIGH(__SRAM_START+__DSTACK_SIZE)
                 
000498 940c 0b39 	JMP  _main
                 
                 	.ESEG
                 	.ORG 0
                 
                 	.DSEG
                 	.ORG 0x160
                 
                 	.CSEG
                 ;/*****************************************************
                 ;This program was produced by the
                 ;CodeWizardAVR V2.05.3 Standard
                 ;Automatic Program Generator
                 ; Copyright 1998-2011 Pavel Haiduc, HP InfoTech s.r.l.
                 ;http://www.hpinfotech.com
                 ;
                 ;Project :
                 ;Version :
                 ;Date    : 27.03.2014
                 ;Author  : PerTic@n
                 ;Company : If You Like This Software,Buy It
                 ;Comments:
                 ;
                 ;
                 ;Chip type               : ATmega16
                 ;Program type            : Application
                 ;AVR Core Clock frequency: 8,000000 MHz
                 ;Memory model            : Small
                 ;External RAM size       : 0
                 ;Data Stack size         : 256
                 ;*****************************************************/
                 ;
                 ;#include <mega16.h>
                 	#ifndef __SLEEP_DEFINED__
                 	#define __SLEEP_DEFINED__
                 	.EQU __se_bit=0x40
                 	.EQU __sm_mask=0xB0
                 	.EQU __sm_powerdown=0x20
                 	.EQU __sm_powersave=0x30
                 	.EQU __sm_standby=0xA0
                 	.EQU __sm_ext_standby=0xB0
                 	.EQU __sm_adc_noise_red=0x10
                 	.SET power_ctrl_reg=mcucr
                 	#endif
                 ;
                 ;#include <delay.h>
                 ;
                 ;// 1 Wire Bus interface functions
                 ;//#include <1wire.h>
                 ;
                 ;// DS1820 Temperature Sensor functions
                 ;#include <ds18b20.h>
                 ;
                 ;#include <stdio.h>
                 ;#include <custom_menu.c>
                 ;#include <n3310lcd.c>
                 ;/**********************************************
                 ;****************PCD8544 Driver*****************
                 ;**********************************************
                 ;
                 ;for original NOKIA 3310 & alternative "chinese" version of display
                 ;
                 ;48x84 dots, 6x14 symbols
                 ;
                 ;**********************************************/
                 ;
                 ;//#define china 0	//  -    "" ,  - 
                 ;
                 ;//LCD Port & pinout setup
                 ;#define LCD_PORT		    PORTB
                 ;#define LCD_DDR        		DDRB
                 ;
                 ;#define LCD_DC_PIN        	    2  //  
                 ;#define LCD_CE_PIN              3  //  
                 ;#define SPI_MOSI_PIN            5  //     SPI
                 ;#define LCD_RST_PIN             4  //  
                 ;#define SPI_CLK_PIN             7  //     SPI
                 ;
                 ;//***********************************************************
                 ;//        
                 ;//***********************************************************
                 ;
                 ;unsigned char lcd_buf[14];		//     LCD
                 ;
                 ;bit power_down = 0;			//power-down control: 0 - chip is active, 1 - chip is in PD-mode
                 ;bit addressing = 0;			// : 0 - , 1- 
                 ;//bit instuct_set = 0;			// : 0 - , 1 -  -     
                 ;
                 ;#ifdef china
                 ;bit x_mirror = 0;			//  X: 0 - ., 1 - .
                 ;bit y_mirror = 0;			//  Y: 0 - ., 1 - .
                 ;bit SPI_invert = 0;			//   SPI: 0 - MSB first, 1 - LSB first
                 ;#endif
                 ;
                 ;//unsigned char set_y;			//  , 0..5 -     
                 ;//unsigned char set_x;                 	//  , 0..83 -     
                 ;unsigned char temp_control = 3;  	// , 0..3
                 ;unsigned char bias = 3;                 //, 0..7
                 ;unsigned char Vop = 80;			//  LCD, 0..127 ( )
                 ;unsigned char disp_config = 2;		// : 0 - blank, 1 - all on, 2 - normal, 3 - inverse
                 ;
                 ;#ifdef china
                 ;unsigned char shift = 5;		//0..3F -   ,  
                 ;#endif
                 ;
                 ;#define PIXEL_OFF	0		//   -    
                 ;#define PIXEL_ON	1
                 ;#define PIXEL_XOR	2
                 ;
                 ;#define LCD_X_RES               84	// 
                 ;#define LCD_Y_RES               48
                 ;#define LCD_CACHE_SIZE          LCD_X_RES*LCD_Y_RES/8
                 ;
                 ;#define Cntr_X_RES              102    	//  -  -  ))
                 ;#define Cntr_Y_RES              64
                 ;#define Cntr_buf_size           Cntr_X_RES*Cntr_Y_RES/8
                 ;
                 ;unsigned char  LcdCache [LCD_CACHE_SIZE];	//Cache buffer in SRAM 84*48 bits or 504 bytes
                 ;unsigned int   LcdCacheIdx;              	//Cache index
                 ;
                 ;#define LCD_CMD         0
                 ;#define LCD_DATA        1
                 ;
                 ;//***************************************************
                 ;//**************** ******************
                 ;//***************************************************
                 ;void LcdSend (unsigned char data, unsigned char cmd);    			//Sends data to display controller
                 ;void LcdUpdate (void);   							//Copies the LCD cache into the device RAM
                 ;void LcdClear (void);    							//Clears the display
                 ;void LcdInit ( void );								// SPI  
                 ;void LcdContrast (unsigned char contrast); 					//contrast -> Contrast value from 0x00 to 0x7F
                 ;void LcdMode (unsigned char mode); 						// : 0 - blank, 1 - all on, 2 - normal, 3 - inverse
                 ;void LcdPwrMode (void);								//  / 
                 ;void LcdImage (flash unsigned char *imageData);					// 
                 ;void LcdPixel (unsigned char x, unsigned char y, unsigned char mode);     	//Displays a pixel at given absolute (x, y) location, mode -> Off, On or Xor
                 ;void LcdLine (int x1, int y1, int x2, int y2, unsigned char mode);  		//Draws a line between two points on the display
                 ;void LcdCircle(char x, char y, char radius, unsigned char mode);		//      
                 ;void LcdBar(int x1, int y1, int x2, int y2, unsigned char persent);		//      %
                 ;void LcdGotoXYFont (unsigned char x, unsigned char y);   			//Sets cursor location to xy location. Range: 1,1 .. 14,6
                 ;void clean_lcd_buf (void);							//  
                 ;void LcdChr (int ch);								//Displays a character at current cursor location and increment cursor location
                 ;void LcdString (unsigned char x, unsigned char y);				//Displays a string at current cursor location
                 ;void LcdChrBold (int ch);							//    ,   )
                 ;void LcdStringBold (unsigned char x, unsigned char y);				//    
                 ;void LcdChrBig (int ch);							//    , 
                 ;void LcdStringBig (unsigned char x, unsigned char y);				//  
                 ;//***************************************************
                 ;
                 ;//ASCII
                 ;flash char table[0x0500] =
                 ;{
                 ;0x00, 0x00, 0x00, 0x00, 0x00,// 00
                 ;0x00, 0x00, 0x00, 0x02, 0x00,// 01
                 ;0x01, 0x3C, 0x42, 0x42, 0x24,// 02  
                 ;0x24, 0x92, 0xFF, 0x92, 0x24,// 03 
                 ;0x00, 0x80, 0xE0, 0x20, 0x3A,// 04 
                 ;0x23, 0x13, 0x08, 0x64, 0x62,// 05
                 ;0x36, 0x49, 0x55, 0x22, 0x50,// 06
                 ;0x00, 0x05, 0x03, 0x00, 0x00,// 07
                 ;0x00, 0x1C, 0x22, 0x41, 0x00,// 08
                 ;0x00, 0x41, 0x22, 0x1C, 0x00,// 09
                 ;0x14, 0x08, 0x3E, 0x08, 0x14,// 0A
                 ;0x08, 0x08, 0x3E, 0x08, 0x08,// 0B
                 ;0x00, 0x50, 0x30, 0x00, 0x00,// 0C
                 ;0x08, 0x08, 0x08, 0x08, 0x08,// 0D
                 ;0x00, 0x60, 0x60, 0x00, 0x00,// 0E
                 ;0x20, 0x10, 0x08, 0x04, 0x02,// 0F
                 ;0x00, 0x00, 0x00, 0x00, 0x00,// 10
                 ;0x00, 0x00, 0x5F, 0x00, 0x00,// 11
                 ;0x00, 0x07, 0x00, 0x07, 0x00,// 12
                 ;0x14, 0x7F, 0x14, 0x7F, 0x14,// 13
                 ;0x24, 0x2A, 0x7F, 0x2A, 0x12,// 14
                 ;0x23, 0x13, 0x08, 0x64, 0x62,// 15
                 ;0x36, 0x49, 0x55, 0x22, 0x50,// 16
                 ;0x00, 0x05, 0x03, 0x00, 0x00,// 17
                 ;0x00, 0x1C, 0x22, 0x41, 0x00,// 18
                 ;0x00, 0x41, 0x22, 0x1C, 0x00,// 19
                 ;0x14, 0x08, 0x3E, 0x08, 0x14,// 1A
                 ;0x08, 0x08, 0x3E, 0x08, 0x08,// 1B
                 ;0x00, 0x50, 0x30, 0x00, 0x00,// 1C
                 ;0x08, 0x08, 0x08, 0x08, 0x08,// 1D
                 ;0x00, 0x60, 0x60, 0x00, 0x00,// 1E
                 ;0x20, 0x10, 0x08, 0x04, 0x02,// 1F
                 ;0x00, 0x00, 0x00, 0x00, 0x00,// 20 space
                 ;0x81, 0x00, 0x00, 0x00, 0x81,// 21 ! 0x00, 0x5F, 0x00, 0x00,
                 ;0x00, 0x07, 0x00, 0x07, 0x00,// 22 "
                 ;0x14, 0x7F, 0x14, 0x7F, 0x14,// 23 #
                 ;0x24, 0x2A, 0x7F, 0x2A, 0x12,// 24 $
                 ;0x23, 0x13, 0x08, 0x64, 0x62,// 25 %
                 ;0x36, 0x49, 0x55, 0x22, 0x50,// 26 &
                 ;0x00, 0x05, 0x03, 0x00, 0x00,// 27 '
                 ;0x00, 0x1C, 0x22, 0x41, 0x00,// 28 (
                 ;0x00, 0x41, 0x22, 0x1C, 0x00,// 29 )
                 ;0x14, 0x08, 0x3E, 0x08, 0x14,// 2a *
                 ;0x08, 0x08, 0x3E, 0x08, 0x08,// 2b +
                 ;0x00, 0x50, 0x30, 0x00, 0x00,// 2c ,
                 ;0x08, 0x08, 0x08, 0x08, 0x08,// 2d -
                 ;0x00, 0x60, 0x60, 0x00, 0x00,// 2e .
                 ;0x20, 0x10, 0x08, 0x04, 0x02,// 2f /
                 ;0x3E, 0x51, 0x49, 0x45, 0x3E,// 30 0
                 ;0x00, 0x42, 0x7F, 0x40, 0x00,// 31 1
                 ;0x42, 0x61, 0x51, 0x49, 0x46,// 32 2
                 ;0x21, 0x41, 0x45, 0x4B, 0x31,// 33 3
                 ;0x18, 0x14, 0x12, 0x7F, 0x10,// 34 4
                 ;0x27, 0x45, 0x45, 0x45, 0x39,// 35 5
                 ;0x3C, 0x4A, 0x49, 0x49, 0x30,// 36 6
                 ;0x01, 0x71, 0x09, 0x05, 0x03,// 37 7
                 ;0x36, 0x49, 0x49, 0x49, 0x36,// 38 8
                 ;0x06, 0x49, 0x49, 0x29, 0x1E,// 39 9
                 ;0x00, 0x36, 0x36, 0x00, 0x00,// 3a :
                 ;0x00, 0x56, 0x36, 0x00, 0x00,// 3b ;
                 ;0x08, 0x14, 0x22, 0x41, 0x00,// 3c <
                 ;0x14, 0x14, 0x14, 0x14, 0x14,// 3d =
                 ;0x00, 0x41, 0x22, 0x14, 0x08,// 3e >
                 ;0x02, 0x01, 0x51, 0x09, 0x06,// 3f ?
                 ;0x32, 0x49, 0x79, 0x41, 0x3E,// 40 @
                 ;0x7E, 0x11, 0x11, 0x11, 0x7E,// 41 A
                 ;0x7F, 0x49, 0x49, 0x49, 0x36,// 42 B
                 ;0x3E, 0x41, 0x41, 0x41, 0x22,// 43 C
                 ;0x7F, 0x41, 0x41, 0x22, 0x1C,// 44 D
                 ;0x7F, 0x49, 0x49, 0x49, 0x41,// 45 E
                 ;0x7F, 0x09, 0x09, 0x09, 0x01,// 46 F
                 ;0x3E, 0x41, 0x49, 0x49, 0x7A,// 47 G
                 ;0x7F, 0x08, 0x08, 0x08, 0x7F,// 48 H
                 ;0x00, 0x41, 0x7F, 0x41, 0x00,// 49 I
                 ;0x20, 0x40, 0x41, 0x3F, 0x01,// 4a J
                 ;0x7F, 0x08, 0x14, 0x22, 0x41,// 4b K
                 ;0x7F, 0x40, 0x40, 0x40, 0x40,// 4c L
                 ;0x7F, 0x02, 0x0C, 0x02, 0x7F,// 4d M
                 ;0x7F, 0x04, 0x08, 0x10, 0x7F,// 4e N
                 ;0x3E, 0x41, 0x41, 0x41, 0x3E,// 4f O
                 ;0x7F, 0x09, 0x09, 0x09, 0x06,// 50 P
                 ;0x3E, 0x41, 0x51, 0x21, 0x5E,// 51 Q
                 ;0x7F, 0x09, 0x19, 0x29, 0x46,// 52 R
                 ;0x46, 0x49, 0x49, 0x49, 0x31,// 53 S
                 ;0x01, 0x01, 0x7F, 0x01, 0x01,// 54 T
                 ;0x3F, 0x40, 0x40, 0x40, 0x3F,// 55 U
                 ;0x1F, 0x20, 0x40, 0x20, 0x1F,// 56 V
                 ;0x3F, 0x40, 0x38, 0x40, 0x3F,// 57 W
                 ;0x63, 0x14, 0x08, 0x14, 0x63,// 58 X
                 ;0x07, 0x08, 0x70, 0x08, 0x07,// 59 Y
                 ;0x61, 0x51, 0x49, 0x45, 0x43,// 5a Z
                 ;0x00, 0x7F, 0x41, 0x41, 0x00,// 5b [
                 ;0x02, 0x04, 0x08, 0x10, 0x20,// 5c Yen Currency Sign
                 ;0x00, 0x41, 0x41, 0x7F, 0x00,// 5d ]
                 ;0x04, 0x02, 0x01, 0x02, 0x04,// 5e ^
                 ;0x40, 0x40, 0x40, 0x40, 0x40,// 5f _
                 ;0x00, 0x01, 0x02, 0x04, 0x00,// 60 `
                 ;0x20, 0x54, 0x54, 0x54, 0x78,// 61 a
                 ;0x7F, 0x48, 0x44, 0x44, 0x38,// 62 b
                 ;0x38, 0x44, 0x44, 0x44, 0x20,// 63 c
                 ;0x38, 0x44, 0x44, 0x48, 0x7F,// 64 d
                 ;0x38, 0x54, 0x54, 0x54, 0x18,// 65 e
                 ;0x08, 0x7E, 0x09, 0x01, 0x02,// 66 f
                 ;0x0C, 0x52, 0x52, 0x52, 0x3E,// 67 g
                 ;0x7F, 0x08, 0x04, 0x04, 0x78,// 68 h
                 ;0x00, 0x44, 0x7D, 0x40, 0x00,// 69 i
                 ;0x20, 0x40, 0x44, 0x3D, 0x00,// 6a j
                 ;0x7F, 0x10, 0x28, 0x44, 0x00,// 6b k
                 ;0x00, 0x41, 0x7F, 0x40, 0x00,// 6c l
                 ;0x7C, 0x04, 0x18, 0x04, 0x78,// 6d m
                 ;0x7C, 0x08, 0x04, 0x04, 0x78,// 6e n
                 ;0x38, 0x44, 0x44, 0x44, 0x38,// 6f o
                 ;0x7C, 0x14, 0x14, 0x14, 0x08,// 70 p
                 ;0x08, 0x14, 0x14, 0x18, 0x7C,// 71 q
                 ;0x7C, 0x08, 0x04, 0x04, 0x08,// 72 r
                 ;0x48, 0x54, 0x54, 0x54, 0x20,// 73 s
                 ;0x04, 0x3F, 0x44, 0x40, 0x20,// 74 t
                 ;0x3C, 0x40, 0x40, 0x20, 0x7C,// 75 u
                 ;0x1C, 0x20, 0x40, 0x20, 0x1C,// 76 v
                 ;0x3C, 0x40, 0x30, 0x40, 0x3C,// 77 w
                 ;0x44, 0x28, 0x10, 0x28, 0x44,// 78 x
                 ;0x0C, 0x50, 0x50, 0x50, 0x3C,// 79 y
                 ;0x44, 0x64, 0x54, 0x4C, 0x44,// 7a z
                 ;0x00, 0x08, 0x36, 0x41, 0x00,// 7b <
                 ;0x00, 0x00, 0x7F, 0x00, 0x00,// 7c |
                 ;0x00, 0x41, 0x36, 0x08, 0x00,// 7d >
                 ;0x10, 0x08, 0x08, 0x10, 0x08,// 7e Right Arrow ->
                 ;0x78, 0x46, 0x41, 0x46, 0x78,// 7f Left Arrow <-
                 ;0x00, 0x00, 0x00, 0x00, 0x00,// 80
                 ;0x00, 0x00, 0x5F, 0x00, 0x00,// 81
                 ;0x00, 0x07, 0x00, 0x07, 0x00,// 82
                 ;0x14, 0x7F, 0x14, 0x7F, 0x14,// 83
                 ;0x24, 0x2A, 0x7F, 0x2A, 0x12,// 84
                 ;0x23, 0x13, 0x08, 0x64, 0x62,// 85
                 ;0x36, 0x49, 0x55, 0x22, 0x50,// 86
                 ;0x00, 0x05, 0x03, 0x00, 0x00,// 87
                 ;0x00, 0x1C, 0x22, 0x41, 0x00,// 88
                 ;0x00, 0x41, 0x22, 0x1C, 0x00,// 89
                 ;0x14, 0x08, 0x3E, 0x08, 0x14,// 8A
                 ;0x08, 0x08, 0x3E, 0x08, 0x08,// 8B
                 ;0x00, 0x50, 0x30, 0x00, 0x00,// 8C
                 ;0x08, 0x08, 0x08, 0x08, 0x08,// 8D
                 ;0x00, 0x60, 0x60, 0x00, 0x00,// 8E
                 ;0x20, 0x10, 0x08, 0x04, 0x02,// 8F
                 ;0x00, 0x00, 0x00, 0x00, 0x00,// 90
                 ;0x00, 0x00, 0x5F, 0x00, 0x00,// 91
                 ;0x00, 0x07, 0x00, 0x07, 0x00,// 92
                 ;0x14, 0x7F, 0x14, 0x7F, 0x14,// 93
                 ;0x24, 0x2A, 0x7F, 0x2A, 0x12,// 94
                 ;0x23, 0x13, 0x08, 0x64, 0x62,// 95
                 ;0x36, 0x49, 0x55, 0x22, 0x50,// 96
                 ;0x00, 0x05, 0x03, 0x00, 0x00,// 97
                 ;0x00, 0x1C, 0x22, 0x41, 0x00,// 98
                 ;0x00, 0x41, 0x22, 0x1C, 0x00,// 99
                 ;0x14, 0x08, 0x3E, 0x08, 0x14,// 9A
                 ;0x08, 0x08, 0x3E, 0x08, 0x08,// 9B
                 ;0x00, 0x50, 0x30, 0x00, 0x00,// 9C
                 ;0x08, 0x08, 0x08, 0x08, 0x08,// 9D
                 ;0x00, 0x60, 0x60, 0x00, 0x00,// 9E
                 ;0x20, 0x10, 0x08, 0x04, 0x02,// 9F
                 ;0x00, 0x00, 0x00, 0x00, 0x00,// A0
                 ;0x00, 0x00, 0x5F, 0x00, 0x00,// A1
                 ;0x00, 0x07, 0x00, 0x07, 0x00,// A2
                 ;0x14, 0x7F, 0x14, 0x7F, 0x14,// A3
                 ;0x24, 0x2A, 0x7F, 0x2A, 0x12,// A4
                 ;0x23, 0x13, 0x08, 0x64, 0x62,// A5
                 ;0x36, 0x49, 0x55, 0x22, 0x50,// A6
                 ;0x00, 0x05, 0x03, 0x00, 0x00,// A7
                 ;0x00, 0x1C, 0x22, 0x41, 0x00,// A8
                 ;0x00, 0x41, 0x22, 0x1C, 0x00,// A9
                 ;0x14, 0x08, 0x3E, 0x08, 0x14,// AA
                 ;0x08, 0x08, 0x3E, 0x08, 0x08,// AB
                 ;0x00, 0x50, 0x30, 0x00, 0x00,// AC
                 ;0x08, 0x08, 0x08, 0x08, 0x08,// AD
                 ;0x00, 0x60, 0x60, 0x00, 0x00,// AE
                 ;0x20, 0x10, 0x08, 0x04, 0x02,// AF
                 ;0x3E, 0x51, 0x49, 0x45, 0x3E,// B0
                 ;0x00, 0x42, 0x7F, 0x40, 0x00,// B1
                 ;0x42, 0x61, 0x51, 0x49, 0x46,// B2
                 ;0x21, 0x41, 0x45, 0x4B, 0x31,// B3
                 ;0x18, 0x14, 0x12, 0x7F, 0x10,// B4
                 ;0x27, 0x45, 0x45, 0x45, 0x39,// B5
                 ;0x3C, 0x4A, 0x49, 0x49, 0x30,// B6
                 ;0x01, 0x71, 0x09, 0x05, 0x03,// B7
                 ;0x36, 0x49, 0x49, 0x49, 0x36,// B8
                 ;0x06, 0x49, 0x49, 0x29, 0x1E,// B9
                 ;0x00, 0x36, 0x36, 0x00, 0x00,// BA
                 ;0x00, 0x56, 0x36, 0x00, 0x00,// BB
                 ;0x08, 0x14, 0x22, 0x41, 0x00,// BC
                 ;0x14, 0x14, 0x14, 0x14, 0x14,// BD
                 ;0x00, 0x41, 0x22, 0x14, 0x08,// BE
                 ;0x02, 0x01, 0x51, 0x09, 0x06,// BF
                 ;0x7E, 0x11, 0x11, 0x11, 0x7E,// C0 ?
                 ;0x7F, 0x49, 0x49, 0x49, 0x31,// C1 ?
                 ;0x7F, 0x49, 0x49, 0x49, 0x36,// C2 ?
                 ;0x7F, 0x01, 0x01, 0x01, 0x03,// C3 ?
                 ;0x70, 0x29, 0x27, 0x21, 0x7F,// C4 ?
                 ;0x7F, 0x49, 0x49, 0x49, 0x41,// C5 ?
                 ;0x77, 0x08, 0x7F, 0x08, 0x77,// C6 ?
                 ;0x41, 0x41, 0x41, 0x49, 0x76,// C7 ?
                 ;0x7F, 0x10, 0x08, 0x04, 0x7F,// C8 ?
                 ;0x7F, 0x10, 0x09, 0x04, 0x7F,// C9 ?
                 ;0x7F, 0x08, 0x14, 0x22, 0x41,// CA ?
                 ;0x20, 0x41, 0x3F, 0x01, 0x7F,// CB ?
                 ;0x7F, 0x02, 0x0C, 0x02, 0x7F,// CC ?
                 ;0x7F, 0x08, 0x08, 0x08, 0x7F,// CD ?
                 ;0x3E, 0x41, 0x41, 0x41, 0x3E,// CE ?
                 ;0x7F, 0x01, 0x01, 0x01, 0x7F,// CF ?
                 ;0x7F, 0x09, 0x09, 0x09, 0x06,// D0 ?
                 ;0x3E, 0x41, 0x41, 0x41, 0x22,// D1 ?
                 ;0x01, 0x01, 0x7F, 0x01, 0x01,// D2 ?
                 ;0x47, 0x28, 0x10, 0x08, 0x07,// D3 ?
                 ;0x1E, 0x21, 0x7F, 0x21, 0x1E,// D4 ?
                 ;0x63, 0x14, 0x08, 0x14, 0x63,// D5 ?
                 ;0x3F, 0x20, 0x20, 0x20, 0x5F,// D6 ?
                 ;0x07, 0x08, 0x08, 0x08, 0x7F,// D7 ?
                 ;0x7F, 0x40, 0x7F, 0x40, 0x7F,// D8 ?
                 ;0x3F, 0x20, 0x3F, 0x20, 0x5F,// D9 ?
                 ;0x01, 0x7F, 0x48, 0x48, 0x30,// DA ?
                 ;0x7F, 0x48, 0x30, 0x00, 0x7F,// DB ?
                 ;0x00, 0x7F, 0x48, 0x48, 0x30,// DC ?
                 ;0x41, 0x41, 0x41, 0x49, 0x3E,// DD ?
                 ;0x7F, 0x08, 0x3E, 0x41, 0x3E,// DE ?
                 ;0x46, 0x29, 0x19, 0x09, 0x7F,// DF ?
                 ;0x20, 0x54, 0x54, 0x54, 0x78,// E0 ?
                 ;0x3C, 0x4A, 0x4A, 0x49, 0x31,// E1 ?
                 ;0x7C, 0x54, 0x54, 0x28, 0x00,// E2 ?
                 ;0x7C, 0x04, 0x04, 0x04, 0x0C,// E3 ?
                 ;0x72, 0x2A, 0x26, 0x22, 0x7E,// E4 ?
                 ;0x38, 0x54, 0x54, 0x54, 0x18,// E5 ?
                 ;0x6C, 0x10, 0x7C, 0x10, 0x6C,// E6 ?
                 ;0x44, 0x44, 0x54, 0x54, 0x38,// E7 ?
                 ;0x7C, 0x20, 0x10, 0x08, 0x7C,// E8 ?
                 ;0x7C, 0x21, 0x12, 0x09, 0x7C,// E9 ?
                 ;0x7C, 0x10, 0x28, 0x44, 0x00,// EA ?
                 ;0x20, 0x44, 0x3C, 0x04, 0x7C,// EB ?
                 ;0x7C, 0x08, 0x10, 0x08, 0x7C,// EC ?
                 ;0x7C, 0x10, 0x10, 0x10, 0x7C,// ED ?
                 ;0x38, 0x44, 0x44, 0x44, 0x38,// EE ?
                 ;0x7C, 0x04, 0x04, 0x04, 0x7C,// EF ?
                 ;0x7C, 0x14, 0x14, 0x14, 0x08,// F0 ?
                 ;0x38, 0x44, 0x44, 0x44, 0x20,// F1 ?
                 ;0x04, 0x04, 0x7C, 0x04, 0x04,// F2 ?
                 ;0x44, 0x28, 0x10, 0x08, 0x04,// F3 ?
                 ;0x08, 0x14, 0x7E, 0x14, 0x08,// F4 ?
                 ;0x44, 0x28, 0x10, 0x28, 0x44,// F5 ?
                 ;0x3C, 0x40, 0x40, 0x7C, 0x40,// F6 ?
                 ;0x0C, 0x10, 0x10, 0x10, 0x7C,// F7 ?
                 ;0x7C, 0x40, 0x7C, 0x40, 0x7C,// F8 ?
                 ;0x3C, 0x20, 0x3C, 0x20, 0x7C,// F9 ?
                 ;0x04, 0x7C, 0x50, 0x50, 0x20,// FA ?
                 ;0x7C, 0x50, 0x20, 0x00, 0x7C,// FB ?
                 ;0x00, 0x7C, 0x50, 0x50, 0x20,// FC ?
                 ;0x28, 0x44, 0x44, 0x54, 0x38,// FD ?
                 ;0x7C, 0x10, 0x38, 0x44, 0x38,// FE ?
                 ;0x48, 0x54, 0x34, 0x14, 0x7C }; // FF
                 ;
                 ;void LcdSend (unsigned char data, unsigned char cmd)    //Sends data to display controller
                 ; 0000 0023         {
                 
                 	.CSEG
                 _LcdSend:
                 ;        LCD_PORT.LCD_CE_PIN = 0;                //Enable display controller (active low)
00049a 93aa      	ST   -Y,R26
                 ;	data -> Y+1
                 ;	cmd -> Y+0
00049b 98c3      	CBI  0x18,3
                 ;
                 ;        if (cmd) LCD_PORT.LCD_DC_PIN = 1;	//   
00049c 81e8      	LD   R30,Y
00049d 30e0      	CPI  R30,0
00049e f011      	BREQ _0x5
00049f 9ac2      	SBI  0x18,2
                 ;                else LCD_PORT.LCD_DC_PIN = 0;
0004a0 c001      	RJMP _0x8
                 _0x5:
0004a1 98c2      	CBI  0x18,2
                 ;        SPDR = data;                            //Send data to display controller
                 _0x8:
0004a2 81e9      	LDD  R30,Y+1
0004a3 b9ef      	OUT  0xF,R30
                 ;        while ( (SPSR & 0x80) != 0x80 );        //Wait until Tx register empty
                 _0xB:
0004a4 b1ee      	IN   R30,0xE
0004a5 78e0      	ANDI R30,LOW(0x80)
0004a6 38e0      	CPI  R30,LOW(0x80)
0004a7 f7e1      	BRNE _0xB
                 ;        LCD_PORT.LCD_CE_PIN = 1;                //Disable display controller
0004a8 9ac3      	SBI  0x18,3
                 ;        }
0004a9 9622      	ADIW R28,2
0004aa 9508      	RET
                 ;
                 ;void LcdUpdate (void)   //Copies the LCD cache into the device RAM
                 ;        {
                 _LcdUpdate:
                 ;        int i;
                 ;	#ifdef china
                 ;	char j;
                 ;	#endif
                 ;
                 ;        LcdSend(0x80, LCD_CMD);		//      0,0
0004ab 940e 0e18 	CALL SUBOPT_0x0
                 ;	i -> R16,R17
                 ;        LcdSend(0x40, LCD_CMD);
                 ;
                 ;        #ifdef china                    		//   -   
                 ;		for (j = Cntr_X_RES; j>0; j--) LcdSend(0, LCD_DATA);
                 ;	#endif
                 ;
                 ;        for (i = 0; i < LCD_CACHE_SIZE; i++)		// 
                 _0x11:
                +
0004ad 3f08     +CPI R16 , LOW ( 504 )
0004ae e0e1     +LDI R30 , HIGH ( 504 )
0004af 071e     +CPC R17 , R30
                 	__CPWRN 16,17,504
0004b0 f44c      	BRGE _0x12
                 ;                {
                 ;                LcdSend(LcdCache[i], LCD_DATA);
0004b1 940e 0e27 	CALL SUBOPT_0x1
0004b3 91ec      	LD   R30,X
0004b4 93ea      	ST   -Y,R30
0004b5 e0a1      	LDI  R26,LOW(1)
0004b6 dfe3      	RCALL _LcdSend
                 ;		#ifdef china				//   -       
                 ;		if (++j == LCD_X_RES)
                 ;			{
                 ;			for (j = (Cntr_X_RES-LCD_X_RES); j>0; j--) LcdSend(0, LCD_DATA);
                 ;			j=0;
                 ;			}
                 ;		#endif
                 ;                }
                +
0004b7 5f0f     +SUBI R16 , LOW ( - 1 )
0004b8 4f1f     +SBCI R17 , HIGH ( - 1 )
                 	__ADDWRN 16,17,1
0004b9 cff3      	RJMP _0x11
                 _0x12:
                 ;        }
0004ba c3f8      	RJMP _0x2080007
                 ;
                 ;void LcdClear (void)    //Clears the display
                 ;        {
                 _LcdClear:
                 ;        int i;
                 ;
                 ;	    for (i = 0; i < LCD_CACHE_SIZE; i++) LcdCache[i] = 0;	//   0
0004bb 931a      	ST   -Y,R17
0004bc 930a      	ST   -Y,R16
                 ;	i -> R16,R17
                +
0004bd e000     +LDI R16 , LOW ( 0 )
0004be e010     +LDI R17 , HIGH ( 0 )
                 	__GETWRN 16,17,0
                 _0x14:
                +
0004bf 3f08     +CPI R16 , LOW ( 504 )
0004c0 e0e1     +LDI R30 , HIGH ( 504 )
0004c1 071e     +CPC R17 , R30
                 	__CPWRN 16,17,504
0004c2 f43c      	BRGE _0x15
0004c3 940e 0e27 	CALL SUBOPT_0x1
0004c5 e0e0      	LDI  R30,LOW(0)
0004c6 93ec      	ST   X,R30
                +
0004c7 5f0f     +SUBI R16 , LOW ( - 1 )
0004c8 4f1f     +SBCI R17 , HIGH ( - 1 )
                 	__ADDWRN 16,17,1
0004c9 cff5      	RJMP _0x14
                 _0x15:
0004ca dfe0      	RCALL _LcdUpdate
                 ;        }
0004cb c3e7      	RJMP _0x2080007
                 ;
                 ;void LcdInit ( void )	// SPI  
                 ;        {
                 _LcdInit:
                 ;        LCD_PORT.LCD_RST_PIN = 1;       //  /
0004cc 9ac4      	SBI  0x18,4
                 ;        LCD_DDR.LCD_RST_PIN = LCD_DDR.LCD_DC_PIN = LCD_DDR.LCD_CE_PIN = LCD_DDR.SPI_MOSI_PIN = LCD_DDR.SPI_CLK_PIN = 1;
0004cd 9abf      	SBI  0x17,7
0004ce 9abd      	SBI  0x17,5
0004cf 9abb      	SBI  0x17,3
0004d0 9aba      	SBI  0x17,2
0004d1 9abc      	SBI  0x17,4
                 ;        delay_ms(1);
0004d2 940e 0e2c 	CALL SUBOPT_0x2
0004d4 940e 0fac 	CALL _delay_ms
                 ;        SPCR = 0x50;
0004d6 e5e0      	LDI  R30,LOW(80)
0004d7 b9ed      	OUT  0xD,R30
                 ;        LCD_PORT.LCD_RST_PIN = 0;       // 
0004d8 98c4      	CBI  0x18,4
                 ;        delay_ms(10);
0004d9 e0aa      	LDI  R26,LOW(10)
0004da 940e 0e2f 	CALL SUBOPT_0x3
                 ;        LCD_PORT.LCD_RST_PIN = 1;
0004dc 9ac4      	SBI  0x18,4
                 ;                            //Enable SPI port: No interrupt, MSBit first, Master mode, CPOL->0, CPHA->0, Clk/4
                 ;
                 ;        LCD_PORT.LCD_CE_PIN = 1;        //Disable LCD controller
0004dd 9ac3      	SBI  0x18,3
                 ;
                 ;        LcdSend( 0b00100001, LCD_CMD ); 						//LCD Extended Commands
0004de e2e1      	LDI  R30,LOW(33)
0004df 940e 0e32 	CALL SUBOPT_0x4
                 ;        LcdSend( 0b00000100+temp_control, LCD_CMD ); 					//Set Temp coefficent
0004e1 2de5      	MOV  R30,R5
0004e2 5fec      	SUBI R30,-LOW(4)
0004e3 940e 0e32 	CALL SUBOPT_0x4
                 ;        	#ifdef china
                 ;        LcdSend( 0b00001000|SPI_invert<<3, LCD_CMD ); 					//   SPI
                 ;		#endif
                 ;        LcdSend( 0b00010000+bias, LCD_CMD ); 						//LCD bias mode 1:48
0004e5 2de4      	MOV  R30,R4
0004e6 5fe0      	SUBI R30,-LOW(16)
0004e7 940e 0e32 	CALL SUBOPT_0x4
                 ;        	#ifdef china
                 ;        LcdSend( 0b01000000+shift, LCD_CMD ); 						//   ,   
                 ;		#endif
                 ;	LcdSend( 0b10000000+Vop, LCD_CMD ); 						//Set LCD Vop (Contrast)
0004e9 2de7      	MOV  R30,R7
0004ea 58e0      	SUBI R30,-LOW(128)
0004eb 940e 0e32 	CALL SUBOPT_0x4
                 ;
                 ;		#ifdef china
                 ;	LcdSend( 0x20|x_mirror<<5|y_mirror<<4|power_down<<3, LCD_CMD );			//LCD Standard Commands
                 ;        	#endif
                 ;                #ifndef china
                 ;        LcdSend( 0x20|power_down<<3|addressing<<2, LCD_CMD );				//LCD Standard Commands
0004ed e0a0      	LDI  R26,0
0004ee fc20      	SBRC R2,0
0004ef e0a1      	LDI  R26,1
0004f0 2fea      	MOV  R30,R26
0004f1 0fee      	LSL  R30
0004f2 0fee      	LSL  R30
0004f3 0fee      	LSL  R30
0004f4 62e0      	ORI  R30,0x20
0004f5 2e0e      	MOV  R0,R30
0004f6 e0a0      	LDI  R26,0
0004f7 fc21      	SBRC R2,1
0004f8 e0a1      	LDI  R26,1
0004f9 2fea      	MOV  R30,R26
0004fa 0fee      	LSL  R30
0004fb 0fee      	LSL  R30
0004fc 29e0      	OR   R30,R0
0004fd 940e 0e32 	CALL SUBOPT_0x4
                 ;                #endif
                 ;        LcdSend( 0b00001000|((disp_config<<1|disp_config)&0b00000101), LCD_CMD ); 	//LCD mode
0004ff 2de6      	MOV  R30,R6
000500 0fee      	LSL  R30
000501 29e6      	OR   R30,R6
000502 70e5      	ANDI R30,LOW(0x5)
000503 60e8      	ORI  R30,8
000504 940e 0e32 	CALL SUBOPT_0x4
                 ;        LcdClear();
000506 dfb4      	RCALL _LcdClear
                 ;        }
000507 9508      	RET
                 ;
                 ;void LcdContrast (unsigned char contrast) 	//contrast -> Contrast value from 0x00 to 0x7F
                 ;        {
                 _LcdContrast:
                 ;        if (contrast > 0x7F) return;
000508 93aa      	ST   -Y,R26
                 ;	contrast -> Y+0
000509 81a8      	LD   R26,Y
00050a 38a0      	CPI  R26,LOW(0x80)
00050b f450      	BRSH _0x208000C
                 ;        LcdSend( 0x21, LCD_CMD );               //LCD Extended Commands
00050c e2e1      	LDI  R30,LOW(33)
00050d 940e 0e32 	CALL SUBOPT_0x4
                 ;        LcdSend( 0x80 | contrast, LCD_CMD );    //Set LCD Vop (Contrast)
00050f 81e8      	LD   R30,Y
000510 68e0      	ORI  R30,0x80
000511 940e 0e32 	CALL SUBOPT_0x4
                 ;        LcdSend( 0x20, LCD_CMD );               //LCD Standard Commands,Horizontal addressing mode
000513 e2e0      	LDI  R30,LOW(32)
000514 940e 0e32 	CALL SUBOPT_0x4
                 ;        }
                 _0x208000C:
000516 9621      	ADIW R28,1
000517 9508      	RET
                 ;
                 ;void LcdMode (unsigned char mode) 		// : 0 - blank, 1 - all on, 2 - normal, 3 - inverse
                 ;        {
                 ;        if (mode > 3) return;
                 ;	mode -> Y+0
                 ;        LcdSend( 0b00001000|((mode<<1|mode)&0b00000101), LCD_CMD ); 	//LCD mode
                 ;        }
                 ;
                 ;void LcdPwrMode (void) 				//  / 
                 ;        {
                 ;        power_down = ~power_down;
                 ;        LcdSend( 0x20|power_down<<3, LCD_CMD );
                 ;        }
                 ;
                 ;void LcdImage (flash unsigned char *imageData)	// 
                 ;        {
                 _LcdImage:
                 ;        unsigned int i;
                 ;
                 ;        LcdSend(0x80, LCD_CMD);		//   0,0
000518 93ba      	ST   -Y,R27
000519 93aa      	ST   -Y,R26
00051a 940e 0e18 	CALL SUBOPT_0x0
                 ;	*imageData -> Y+2
                 ;	i -> R16,R17
                 ;        LcdSend(0x40, LCD_CMD);
                 ;        for (i = 0; i < LCD_CACHE_SIZE; i++) LcdCache[i] = imageData[i];	// 
                 _0x2B:
                +
00051c 3f08     +CPI R16 , LOW ( 504 )
00051d e0e1     +LDI R30 , HIGH ( 504 )
00051e 071e     +CPC R17 , R30
                 	__CPWRN 16,17,504
00051f f478      	BRSH _0x2C
000520 01f8      	MOVW R30,R16
000521 58e9      	SUBI R30,LOW(-_LcdCache)
000522 4ffe      	SBCI R31,HIGH(-_LcdCache)
000523 010f      	MOVW R0,R30
000524 01f8      	MOVW R30,R16
000525 81aa      	LDD  R26,Y+2
000526 81bb      	LDD  R27,Y+2+1
000527 0fea      	ADD  R30,R26
000528 1ffb      	ADC  R31,R27
000529 91e4      	LPM  R30,Z
00052a 01d0      	MOVW R26,R0
00052b 93ec      	ST   X,R30
                +
00052c 5f0f     +SUBI R16 , LOW ( - 1 )
00052d 4f1f     +SBCI R17 , HIGH ( - 1 )
                 	__ADDWRN 16,17,1
00052e cfed      	RJMP _0x2B
                 _0x2C:
00052f 8119      	LDD  R17,Y+1
000530 8108      	LDD  R16,Y+0
000531 c305      	RJMP _0x2080008
                 ;
                 ;void LcdPixel (unsigned char x, unsigned char y, unsigned char mode)     //Displays a pixel at given absolute (x, y) location, mode -> Off, On or Xor
                 ;        {
                 _LcdPixel:
                 ;        int index;
                 ;        unsigned char offset, data;
                 ;
                 ;        if ( x > LCD_X_RES ) return;	//     - 
000532 93aa      	ST   -Y,R26
000533 940e 127c 	CALL __SAVELOCR4
                 ;	x -> Y+6
                 ;	y -> Y+5
                 ;	mode -> Y+4
                 ;	index -> R16,R17
                 ;	offset -> R19
                 ;	data -> R18
000535 81ae      	LDD  R26,Y+6
000536 35a5      	CPI  R26,LOW(0x55)
000537 f590      	BRSH _0x208000B
                 ;        if ( y > LCD_Y_RES ) return;
000538 81ad      	LDD  R26,Y+5
000539 33a1      	CPI  R26,LOW(0x31)
00053a f578      	BRSH _0x208000B
                 ;
                 ;        index = (((int)(y)/8)*84)+x;    //      
00053b 940e 0e36 	CALL SUBOPT_0x5
00053d e5a4      	LDI  R26,LOW(84)
00053e e0b0      	LDI  R27,HIGH(84)
00053f 940e 11dc 	CALL __MULW12
000541 01df      	MOVW R26,R30
000542 81ee      	LDD  R30,Y+6
000543 940e 0e3d 	CALL SUBOPT_0x6
000545 018f      	MOVW R16,R30
                 ;        offset  = y-((y/8)*8);          //     
000546 940e 0e36 	CALL SUBOPT_0x5
000548 0fee      	LSL  R30
000549 0fee      	LSL  R30
00054a 0fee      	LSL  R30
00054b 81ad      	LDD  R26,Y+5
00054c 1bae      	SUB  R26,R30
00054d 2f3a      	MOV  R19,R26
                 ;
                 ;        data = LcdCache[index];         //    
00054e 940e 0e27 	CALL SUBOPT_0x1
000550 912c      	LD   R18,X
                 ;
                 ;        if ( mode == PIXEL_OFF ) data &= ( ~( 0x01 << offset ) );	//    
000551 81ec      	LDD  R30,Y+4
000552 30e0      	CPI  R30,0
000553 f429      	BRNE _0x2F
000554 940e 0e41 	CALL SUBOPT_0x7
000556 95e0      	COM  R30
000557 232e      	AND  R18,R30
                 ;                else if ( mode == PIXEL_ON ) data |= ( 0x01 << offset );
000558 c00d      	RJMP _0x30
                 _0x2F:
000559 81ac      	LDD  R26,Y+4
00055a 30a1      	CPI  R26,LOW(0x1)
00055b f421      	BRNE _0x31
00055c 940e 0e41 	CALL SUBOPT_0x7
00055e 2b2e      	OR   R18,R30
                 ;                        else if ( mode  == PIXEL_XOR ) data ^= ( 0x01 << offset );
00055f c006      	RJMP _0x32
                 _0x31:
000560 81ac      	LDD  R26,Y+4
000561 30a2      	CPI  R26,LOW(0x2)
000562 f419      	BRNE _0x33
000563 940e 0e41 	CALL SUBOPT_0x7
000565 272e      	EOR  R18,R30
                 ;
                 ;        LcdCache[index] = data;		//  
                 _0x33:
                 _0x32:
                 _0x30:
000566 01f8      	MOVW R30,R16
000567 58e9      	SUBI R30,LOW(-_LcdCache)
000568 4ffe      	SBCI R31,HIGH(-_LcdCache)
000569 8320      	ST   Z,R18
                 ;        }
                 _0x208000B:
00056a 940e 1283 	CALL __LOADLOCR4
00056c 9627      	ADIW R28,7
00056d 9508      	RET
                 ;
                 ;void LcdLine (int x1, int y1, int x2, int y2, unsigned char mode)  	//Draws a line between two points on the display -  
                 ;        {
                 _LcdLine:
                 ;        signed int dy = 0;
                 ;        signed int dx = 0;
                 ;        signed int stepx = 0;
                 ;        signed int stepy = 0;
                 ;        signed int fraction = 0;
                 ;
                 ;        if (x1>LCD_X_RES || x2>LCD_X_RES || y1>LCD_Y_RES || y2>LCD_Y_RES) return;
00056e 93aa      	ST   -Y,R26
00056f 9724      	SBIW R28,4
000570 e0e0      	LDI  R30,LOW(0)
000571 83e8      	ST   Y,R30
000572 83e9      	STD  Y+1,R30
000573 83ea      	STD  Y+2,R30
000574 83eb      	STD  Y+3,R30
000575 940e 127a 	CALL __SAVELOCR6
                 ;	x1 -> Y+17
                 ;	y1 -> Y+15
                 ;	x2 -> Y+13
                 ;	y2 -> Y+11
                 ;	mode -> Y+10
                 ;	dy -> R16,R17
                 ;	dx -> R18,R19
                 ;	stepx -> R20,R21
                 ;	stepy -> Y+8
                 ;	fraction -> Y+6
                +
000577 e000     +LDI R16 , LOW ( 0 )
000578 e010     +LDI R17 , HIGH ( 0 )
                 	__GETWRN 16,17,0
                +
000579 e020     +LDI R18 , LOW ( 0 )
00057a e030     +LDI R19 , HIGH ( 0 )
                 	__GETWRN 18,19,0
                +
00057b e040     +LDI R20 , LOW ( 0 )
00057c e050     +LDI R21 , HIGH ( 0 )
                 	__GETWRN 20,21,0
00057d 89a9      	LDD  R26,Y+17
00057e 89ba      	LDD  R27,Y+17+1
00057f 35a5      	CPI  R26,LOW(0x55)
000580 e0e0      	LDI  R30,HIGH(0x55)
000581 07be      	CPC  R27,R30
000582 f474      	BRGE _0x35
000583 85ad      	LDD  R26,Y+13
000584 85be      	LDD  R27,Y+13+1
000585 35a5      	CPI  R26,LOW(0x55)
000586 e0e0      	LDI  R30,HIGH(0x55)
000587 07be      	CPC  R27,R30
000588 f444      	BRGE _0x35
000589 85af      	LDD  R26,Y+15
00058a 89b8      	LDD  R27,Y+15+1
00058b 97d1      	SBIW R26,49
00058c f424      	BRGE _0x35
00058d 85ab      	LDD  R26,Y+11
00058e 85bc      	LDD  R27,Y+11+1
00058f 97d1      	SBIW R26,49
000590 f00c      	BRLT _0x34
                 _0x35:
000591 c072      	RJMP _0x208000A
                 ;
                 ;        dy = y2 - y1;
                 _0x34:
000592 85af      	LDD  R26,Y+15
000593 89b8      	LDD  R27,Y+15+1
000594 85eb      	LDD  R30,Y+11
000595 85fc      	LDD  R31,Y+11+1
000596 1bea      	SUB  R30,R26
000597 0bfb      	SBC  R31,R27
000598 018f      	MOVW R16,R30
                 ;        dx = x2 - x1;
000599 89a9      	LDD  R26,Y+17
00059a 89ba      	LDD  R27,Y+17+1
00059b 85ed      	LDD  R30,Y+13
00059c 85fe      	LDD  R31,Y+13+1
00059d 1bea      	SUB  R30,R26
00059e 0bfb      	SBC  R31,R27
00059f 019f      	MOVW R18,R30
                 ;        if (dy < 0)
0005a0 2311      	TST  R17
0005a1 f43a      	BRPL _0x37
                 ;                {
                 ;                dy = -dy;
0005a2 01f8      	MOVW R30,R16
0005a3 940e 1191 	CALL __ANEGW1
0005a5 018f      	MOVW R16,R30
                 ;                stepy = -1;
0005a6 efef      	LDI  R30,LOW(65535)
0005a7 efff      	LDI  R31,HIGH(65535)
0005a8 c002      	RJMP _0xB8
                 ;                }
                 ;                else stepy = 1;
                 _0x37:
0005a9 e0e1      	LDI  R30,LOW(1)
0005aa e0f0      	LDI  R31,HIGH(1)
                 _0xB8:
0005ab 87e8      	STD  Y+8,R30
0005ac 87f9      	STD  Y+8+1,R31
                 ;        if (dx < 0)
0005ad 2333      	TST  R19
0005ae f43a      	BRPL _0x39
                 ;                {
                 ;                dx = -dx;
0005af 01f9      	MOVW R30,R18
0005b0 940e 1191 	CALL __ANEGW1
0005b2 019f      	MOVW R18,R30
                 ;                stepx = -1;
                +
0005b3 ef4f     +LDI R20 , LOW ( - 1 )
0005b4 ef5f     +LDI R21 , HIGH ( - 1 )
                 	__GETWRN 20,21,-1
                 ;                }
                 ;                else stepx = 1;
0005b5 c002      	RJMP _0x3A
                 _0x39:
                +
0005b6 e041     +LDI R20 , LOW ( 1 )
0005b7 e050     +LDI R21 , HIGH ( 1 )
                 	__GETWRN 20,21,1
                 ;        dy <<= 1;
                 _0x3A:
0005b8 0f00      	LSL  R16
0005b9 1f11      	ROL  R17
                 ;        dx <<= 1;
0005ba 0f22      	LSL  R18
0005bb 1f33      	ROL  R19
                 ;        LcdPixel(x1,y1,mode);
0005bc 940e 0e46 	CALL SUBOPT_0x8
                 ;        if (dx > dy)
                +
0005be 1702     +CP R16 , R18
0005bf 0713     +CPC R17 , R19
                 	__CPWRR 16,17,18,19
0005c0 f514      	BRGE _0x3B
                 ;                {
                 ;                fraction = dy - (dx >> 1);
0005c1 01f9      	MOVW R30,R18
0005c2 95f5      	ASR  R31
0005c3 95e7      	ROR  R30
0005c4 01df      	MOVW R26,R30
0005c5 01f8      	MOVW R30,R16
0005c6 1bea      	SUB  R30,R26
0005c7 0bfb      	SBC  R31,R27
0005c8 83ee      	STD  Y+6,R30
0005c9 83ff      	STD  Y+6+1,R31
                 ;                while (x1 != x2)
                 _0x3C:
0005ca 85ed      	LDD  R30,Y+13
0005cb 85fe      	LDD  R31,Y+13+1
0005cc 89a9      	LDD  R26,Y+17
0005cd 89ba      	LDD  R27,Y+17+1
0005ce 17ea      	CP   R30,R26
0005cf 07fb      	CPC  R31,R27
0005d0 f089      	BREQ _0x3E
                 ;                        {
                 ;                        if (fraction >= 0)
0005d1 81af      	LDD  R26,Y+7
0005d2 23aa      	TST  R26
0005d3 f042      	BRMI _0x3F
                 ;                                {
                 ;                                y1 += stepy;
0005d4 940e 0e4d 	CALL SUBOPT_0x9
                 ;                                fraction -= dx;
0005d6 81ee      	LDD  R30,Y+6
0005d7 81ff      	LDD  R31,Y+6+1
0005d8 1be2      	SUB  R30,R18
0005d9 0bf3      	SBC  R31,R19
0005da 83ee      	STD  Y+6,R30
0005db 83ff      	STD  Y+6+1,R31
                 ;                                }
                 ;                        x1 += stepx;
                 _0x3F:
0005dc 940e 0e56 	CALL SUBOPT_0xA
                 ;                        fraction += dy;
0005de 01f8      	MOVW R30,R16
0005df 940e 0e5e 	CALL SUBOPT_0xB
                 ;                        LcdPixel(x1,y1,mode);
                 ;                        }
0005e1 cfe8      	RJMP _0x3C
                 _0x3E:
                 ;                }
                 ;                else
0005e2 c021      	RJMP _0x40
                 _0x3B:
                 ;                        {
                 ;                        fraction = dx - (dy >> 1);
0005e3 01f8      	MOVW R30,R16
0005e4 95f5      	ASR  R31
0005e5 95e7      	ROR  R30
0005e6 01df      	MOVW R26,R30
0005e7 01f9      	MOVW R30,R18
0005e8 1bea      	SUB  R30,R26
0005e9 0bfb      	SBC  R31,R27
0005ea 83ee      	STD  Y+6,R30
0005eb 83ff      	STD  Y+6+1,R31
                 ;                        while (y1 != y2)
                 _0x41:
0005ec 85eb      	LDD  R30,Y+11
0005ed 85fc      	LDD  R31,Y+11+1
0005ee 85af      	LDD  R26,Y+15
0005ef 89b8      	LDD  R27,Y+15+1
0005f0 17ea      	CP   R30,R26
0005f1 07fb      	CPC  R31,R27
0005f2 f089      	BREQ _0x43
                 ;                                {
                 ;                                if (fraction >= 0)
0005f3 81af      	LDD  R26,Y+7
0005f4 23aa      	TST  R26
0005f5 f042      	BRMI _0x44
                 ;                                        {
                 ;                                        x1 += stepx;
0005f6 940e 0e56 	CALL SUBOPT_0xA
                 ;                                        fraction -= dy;
0005f8 81ee      	LDD  R30,Y+6
0005f9 81ff      	LDD  R31,Y+6+1
0005fa 1be0      	SUB  R30,R16
0005fb 0bf1      	SBC  R31,R17
0005fc 83ee      	STD  Y+6,R30
0005fd 83ff      	STD  Y+6+1,R31
                 ;                                        }
                 ;                                y1 += stepy;
                 _0x44:
0005fe 940e 0e4d 	CALL SUBOPT_0x9
                 ;                                fraction += dx;
000600 01f9      	MOVW R30,R18
000601 940e 0e5e 	CALL SUBOPT_0xB
                 ;                                LcdPixel(x1,y1,mode);
                 ;                                }
000603 cfe8      	RJMP _0x41
                 _0x43:
                 ;                        }
                 _0x40:
                 ;        }
                 _0x208000A:
000604 940e 1281 	CALL __LOADLOCR6
000606 9663      	ADIW R28,19
000607 9508      	RET
                 ;
                 ;void LcdCircle(char x, char y, char radius, unsigned char mode)		//      -  
                 ;        {
                 ;        signed char xc = 0;
                 ;        signed char yc = 0;
                 ;        signed char p = 0;
                 ;
                 ;        if (x>LCD_X_RES || y>LCD_Y_RES) return;
                 ;	x -> Y+7
                 ;	y -> Y+6
                 ;	radius -> Y+5
                 ;	mode -> Y+4
                 ;	xc -> R17
                 ;	yc -> R16
                 ;	p -> R19
                 ;
                 ;        yc=radius;
                 ;        p = 3 - (radius<<1);
                 ;        while (xc <= yc)
                 ;                {
                 ;                LcdPixel(x + xc, y + yc, mode);
                 ;                LcdPixel(x + xc, y - yc, mode);
                 ;                LcdPixel(x - xc, y + yc, mode);
                 ;                LcdPixel(x - xc, y - yc, mode);
                 ;                LcdPixel(x + yc, y + xc, mode);
                 ;                LcdPixel(x + yc, y - xc, mode);
                 ;                LcdPixel(x - yc, y + xc, mode);
                 ;                LcdPixel(x - yc, y - xc, mode);
                 ;                if (p < 0) p += (xc++ << 2) + 6;
                 ;                        else p += ((xc++ - yc--)<<2) + 10;
                 ;                }
                 ;        }
                 ;
                 ;void LcdBar(int x1, int y1, int x2, int y2, unsigned char persent)	//     %
                 ;        {
                 _LcdBar:
                 ;        unsigned char horizon_line,horizon_line2,i;
                 ;        if(persent>100)return;
000608 93aa      	ST   -Y,R26
000609 940e 127c 	CALL __SAVELOCR4
                 ;	x1 -> Y+11
                 ;	y1 -> Y+9
                 ;	x2 -> Y+7
                 ;	y2 -> Y+5
                 ;	persent -> Y+4
                 ;	horizon_line -> R17
                 ;	horizon_line2 -> R16
                 ;	i -> R19
00060b 81ac      	LDD  R26,Y+4
00060c 36a5      	CPI  R26,LOW(0x65)
00060d f008      	BRLO _0x4D
00060e c03f      	RJMP _0x2080009
                 ;        //LcdLine(x1,y2,x2,y2,1);  //down
                 ;        //LcdLine(x2,y1,x2,y2,1);  //right
                 ;	    //LcdLine(x1,y1,x1,y2,1);  //left
                 ;	    //LcdLine(x1,y1,x2,y1,1);  //up
                 ;
                 ;
                 ;        horizon_line=persent*(y2-y1)/100;
                 _0x4D:
00060f 800c      	LDD  R0,Y+4
000610 2411      	CLR  R1
000611 85a9      	LDD  R26,Y+9
000612 85ba      	LDD  R27,Y+9+1
000613 81ed      	LDD  R30,Y+5
000614 81fe      	LDD  R31,Y+5+1
000615 1bea      	SUB  R30,R26
000616 0bfb      	SBC  R31,R27
000617 01d0      	MOVW R26,R0
000618 940e 11dc 	CALL __MULW12
00061a 01df      	MOVW R26,R30
00061b e6e4      	LDI  R30,LOW(100)
00061c e0f0      	LDI  R31,HIGH(100)
00061d 940e 11f9 	CALL __DIVW21
00061f 2f1e      	MOV  R17,R30
                 ;        for(i=0;i<horizon_line;i++) LcdLine(x1,y2-i,x2,y2-i,1);
000620 e030      	LDI  R19,LOW(0)
                 _0x4F:
000621 1731      	CP   R19,R17
000622 f480      	BRSH _0x50
000623 940e 0e65 	CALL SUBOPT_0xC
000625 81af      	LDD  R26,Y+7
000626 85b8      	LDD  R27,Y+7+1
000627 940e 0e6c 	CALL SUBOPT_0xD
000629 940e 0e65 	CALL SUBOPT_0xC
00062b 85ab      	LDD  R26,Y+11
00062c 85bc      	LDD  R27,Y+11+1
00062d 940e 0e6c 	CALL SUBOPT_0xD
00062f e0a1      	LDI  R26,LOW(1)
000630 df3d      	RCALL _LcdLine
000631 5f3f      	SUBI R19,-1
000632 cfee      	RJMP _0x4F
                 _0x50:
000633 85a9      	LDD  R26,Y+9
000634 81ed      	LDD  R30,Y+5
000635 1bea      	SUB  R30,R26
000636 2f0e      	MOV  R16,R30
                 ;        for(i=horizon_line2;i>horizon_line;i--) LcdLine(x1,y2+1-i,x2,y2+1-i,0);
000637 2f30      	MOV  R19,R16
                 _0x52:
000638 1713      	CP   R17,R19
000639 f4a0      	BRSH _0x53
00063a 85eb      	LDD  R30,Y+11
00063b 85fc      	LDD  R31,Y+11+1
00063c 93fa      	ST   -Y,R31
00063d 93ea      	ST   -Y,R30
00063e 81af      	LDD  R26,Y+7
00063f 85b8      	LDD  R27,Y+7+1
000640 940e 0e71 	CALL SUBOPT_0xE
000642 85eb      	LDD  R30,Y+11
000643 85fc      	LDD  R31,Y+11+1
000644 93fa      	ST   -Y,R31
000645 93ea      	ST   -Y,R30
000646 85ab      	LDD  R26,Y+11
000647 85bc      	LDD  R27,Y+11+1
000648 940e 0e71 	CALL SUBOPT_0xE
00064a e0a0      	LDI  R26,LOW(0)
00064b df22      	RCALL _LcdLine
00064c 5031      	SUBI R19,1
00064d cfea      	RJMP _0x52
                 _0x53:
                 _0x2080009:
00064e 940e 1283 	CALL __LOADLOCR4
000650 962d      	ADIW R28,13
000651 9508      	RET
                 ;
                 ;void LcdGotoXYFont (unsigned char x, unsigned char y)   //Sets cursor location to xy location. Range: 1,1 .. 14,6
                 ;        {
                 _LcdGotoXYFont:
                 ;        if (x <= 14 && y<= 6) LcdCacheIdx = ( (int)(y) - 1 ) * 84 + ( (int)(x) - 1 ) * 6;
000652 93aa      	ST   -Y,R26
                 ;	x -> Y+1
                 ;	y -> Y+0
000653 81a9      	LDD  R26,Y+1
000654 30af      	CPI  R26,LOW(0xF)
000655 f418      	BRSH _0x55
000656 81a8      	LD   R26,Y
000657 30a7      	CPI  R26,LOW(0x7)
000658 f008      	BRLO _0x56
                 _0x55:
000659 c012      	RJMP _0x54
                 _0x56:
00065a 81e8      	LD   R30,Y
00065b e0f0      	LDI  R31,0
00065c 9731      	SBIW R30,1
00065d e5a4      	LDI  R26,LOW(84)
00065e e0b0      	LDI  R27,HIGH(84)
00065f 940e 11dc 	CALL __MULW12
000661 01bf      	MOVW R22,R30
000662 81e9      	LDD  R30,Y+1
000663 e0f0      	LDI  R31,0
000664 9731      	SBIW R30,1
000665 e0a6      	LDI  R26,LOW(6)
000666 e0b0      	LDI  R27,HIGH(6)
000667 940e 11dc 	CALL __MULW12
000669 0fe6      	ADD  R30,R22
00066a 1ff7      	ADC  R31,R23
00066b 014f      	MOVW R8,R30
                 ;        }
                 _0x54:
00066c c45b      	RJMP _0x2080005
                 ;
                 ;void clean_lcd_buf (void)	//  
                 ;	{
                 _clean_lcd_buf:
                 ;	char i;
                 ;
                 ;	for (i=0; i<14; i++) lcd_buf[i] = 0;
00066d 931a      	ST   -Y,R17
                 ;	i -> R17
00066e e010      	LDI  R17,LOW(0)
                 _0x58:
00066f 301e      	CPI  R17,14
000670 f430      	BRSH _0x59
000671 940e 0e75 	CALL SUBOPT_0xF
000673 e0a0      	LDI  R26,LOW(0)
000674 83a0      	STD  Z+0,R26
000675 5f1f      	SUBI R17,-1
000676 cff8      	RJMP _0x58
                 _0x59:
000677 9119      	LD   R17,Y+
000678 9508      	RET
                 ;
                 ;void CharPrint (int ch, unsigned int IconSize, flash unsigned char *CharData, unsigned int inv, unsigned int space)
                 ;    {
                 _CharPrint:
                 ;        unsigned char i;
                 ;
                 ;        for ( i = 0; i < IconSize; i++ )
000679 93ba      	ST   -Y,R27
00067a 93aa      	ST   -Y,R26
00067b 931a      	ST   -Y,R17
                 ;	ch -> Y+9
                 ;	IconSize -> Y+7
                 ;	*CharData -> Y+5
                 ;	inv -> Y+3
                 ;	space -> Y+1
                 ;	i -> R17
00067c e010      	LDI  R17,LOW(0)
                 _0x5B:
00067d 81ef      	LDD  R30,Y+7
00067e 85f8      	LDD  R31,Y+7+1
00067f 940e 0e7a 	CALL SUBOPT_0x10
000681 f4d8      	BRSH _0x5C
                 ;        {
                 ;            LcdCache[LcdCacheIdx++] = inv ? ~(CharData[(ch*IconSize+i)]) : CharData[(ch*IconSize+i)];
000682 940e 0e7f 	CALL SUBOPT_0x11
000684 01bf      	MOVW R22,R30
000685 81eb      	LDD  R30,Y+3
000686 81fc      	LDD  R31,Y+3+1
000687 9730      	SBIW R30,0
000688 f049      	BREQ _0x5D
000689 940e 0e86 	CALL SUBOPT_0x12
00068b 81ad      	LDD  R26,Y+5
00068c 81be      	LDD  R27,Y+5+1
00068d 0fea      	ADD  R30,R26
00068e 1ffb      	ADC  R31,R27
00068f 91e4      	LPM  R30,Z
000690 95e0      	COM  R30
000691 c007      	RJMP _0x5E
                 _0x5D:
000692 940e 0e86 	CALL SUBOPT_0x12
000694 81ad      	LDD  R26,Y+5
000695 81be      	LDD  R27,Y+5+1
000696 0fea      	ADD  R30,R26
000697 1ffb      	ADC  R31,R27
000698 91e4      	LPM  R30,Z
                 _0x5E:
000699 01db      	MOVW R26,R22
00069a 93ec      	ST   X,R30
                 ;        }
00069b 5f1f      	SUBI R17,-1
00069c cfe0      	RJMP _0x5B
                 _0x5C:
                 ;        if (space) LcdCache[LcdCacheIdx++] = 0x00;	//   
00069d 81e9      	LDD  R30,Y+1
00069e 81fa      	LDD  R31,Y+1+1
00069f 9730      	SBIW R30,0
0006a0 f021      	BREQ _0x60
0006a1 940e 0e7f 	CALL SUBOPT_0x11
0006a3 e0a0      	LDI  R26,LOW(0)
0006a4 83a0      	STD  Z+0,R26
                 ;    }
                 _0x60:
0006a5 8118      	LDD  R17,Y+0
0006a6 962b      	ADIW R28,11
0006a7 9508      	RET
                 ;
                 ;void LcdChr (int ch)	//Displays a character at current cursor location and increment cursor location
                 ; 	{
                 _LcdChr:
                 ;     	CharPrint(ch,5,table,0,1);
0006a8 940e 0e8f 	CALL SUBOPT_0x13
                 ;	ch -> Y+0
0006aa 93fa      	ST   -Y,R31
0006ab 93ea      	ST   -Y,R30
0006ac e0e5      	LDI  R30,LOW(5)
0006ad e0f0      	LDI  R31,HIGH(5)
0006ae 93fa      	ST   -Y,R31
0006af 93ea      	ST   -Y,R30
0006b0 e5e4      	LDI  R30,LOW(_table*2)
0006b1 e0f0      	LDI  R31,HIGH(_table*2)
0006b2 940e 0e94 	CALL SUBOPT_0x14
0006b4 940e 0e2c 	CALL SUBOPT_0x2
0006b6 dfc2      	RCALL _CharPrint
                 ; 	}
0006b7 c410      	RJMP _0x2080005
                 ;
                 ;void LcdString (unsigned char x, unsigned char y)	//Displays a string at current cursor location
                 ;	{
                 _LcdString:
                 ;	unsigned char i;
                 ;
                 ;	if (x > 14 && y > 6) return;
0006b8 93aa      	ST   -Y,R26
0006b9 931a      	ST   -Y,R17
                 ;	x -> Y+2
                 ;	y -> Y+1
                 ;	i -> R17
0006ba 81aa      	LDD  R26,Y+2
0006bb 30af      	CPI  R26,LOW(0xF)
0006bc f018      	BRLO _0x62
0006bd 81a9      	LDD  R26,Y+1
0006be 30a7      	CPI  R26,LOW(0x7)
0006bf f408      	BRSH _0x63
                 _0x62:
0006c0 c003      	RJMP _0x61
                 _0x63:
0006c1 8118      	LDD  R17,Y+0
0006c2 9623      	ADIW R28,3
0006c3 9508      	RET
                 ;	LcdGotoXYFont (x, y);
                 _0x61:
0006c4 940e 0e9b 	CALL SUBOPT_0x15
                 ;	for ( i = 0; i < 15-x; i++ ) if (lcd_buf[i]) LcdChr (lcd_buf[i]);
                 _0x65:
0006c6 81ea      	LDD  R30,Y+2
0006c7 e0f0      	LDI  R31,0
0006c8 e0af      	LDI  R26,LOW(15)
0006c9 e0b0      	LDI  R27,HIGH(15)
0006ca 940e 0ea2 	CALL SUBOPT_0x16
0006cc f464      	BRGE _0x66
0006cd 940e 0e75 	CALL SUBOPT_0xF
0006cf 81e0      	LD   R30,Z
0006d0 30e0      	CPI  R30,0
0006d1 f029      	BREQ _0x67
0006d2 940e 0e75 	CALL SUBOPT_0xF
0006d4 81a0      	LD   R26,Z
0006d5 e0b0      	LDI  R27,0
0006d6 dfd1      	RCALL _LcdChr
                 ;	clean_lcd_buf();
                 _0x67:
0006d7 5f1f      	SUBI R17,-1
0006d8 cfed      	RJMP _0x65
                 _0x66:
0006d9 df93      	RCALL _clean_lcd_buf
                 ;	}
0006da c53a      	RJMP _0x2080003
                 ;
                 ;void LcdChrBold (int ch)	//Displays a bold character at current cursor location and increment cursor location
                 ; 	{
                 _LcdChrBold:
                 ;     	unsigned char i;
                 ;     	unsigned char a = 0, b = 0, c = 0;
                 ;
                 ;     	for ( i = 0; i < 5; i++ )
0006db 940e 0ea7 	CALL SUBOPT_0x17
                 ;	ch -> Y+4
                 ;	i -> R17
                 ;	a -> R16
                 ;	b -> R19
                 ;	c -> R18
0006dd e000      	LDI  R16,0
0006de e030      	LDI  R19,0
0006df e020      	LDI  R18,0
0006e0 e010      	LDI  R17,LOW(0)
                 _0x69:
0006e1 3015      	CPI  R17,5
0006e2 f010      	BRLO PC+3
0006e3 940c 0737 	JMP _0x6A
                 ;     	        {
                 ;     	        c = table[(ch*5+i)];		//   
0006e5 81ec      	LDD  R30,Y+4
0006e6 81fd      	LDD  R31,Y+4+1
0006e7 e0a5      	LDI  R26,LOW(5)
0006e8 e0b0      	LDI  R27,HIGH(5)
0006e9 940e 11dc 	CALL __MULW12
0006eb 01df      	MOVW R26,R30
0006ec 2fe1      	MOV  R30,R17
0006ed 940e 0e3d 	CALL SUBOPT_0x6
0006ef 5aec      	SUBI R30,LOW(-_table*2)
0006f0 4fff      	SBCI R31,HIGH(-_table*2)
0006f1 9124      	LPM  R18,Z
                 ;
                 ;     	        b =  (c & 0x01) * 3;            //""    
0006f2 2fe2      	MOV  R30,R18
0006f3 70e1      	ANDI R30,LOW(0x1)
0006f4 e0a3      	LDI  R26,LOW(3)
0006f5 02ea      	MULS R30,R26
0006f6 2d30      	MOV  R19,R0
                 ;              	b |= (c & 0x02) * 6;
0006f7 2fe2      	MOV  R30,R18
0006f8 70e2      	ANDI R30,LOW(0x2)
0006f9 e0a6      	LDI  R26,LOW(6)
0006fa 02ea      	MULS R30,R26
0006fb 01f0      	MOVW R30,R0
0006fc 2b3e      	OR   R19,R30
                 ;              	b |= (c & 0x04) * 12;
0006fd 2fe2      	MOV  R30,R18
0006fe 70e4      	ANDI R30,LOW(0x4)
0006ff e0ac      	LDI  R26,LOW(12)
000700 02ea      	MULS R30,R26
000701 01f0      	MOVW R30,R0
000702 2b3e      	OR   R19,R30
                 ;              	b |= (c & 0x08) * 24;
000703 2fe2      	MOV  R30,R18
000704 70e8      	ANDI R30,LOW(0x8)
000705 e1a8      	LDI  R26,LOW(24)
000706 02ea      	MULS R30,R26
000707 01f0      	MOVW R30,R0
000708 2b3e      	OR   R19,R30
                 ;
                 ;              	c >>= 4;
000709 9522      	SWAP R18
00070a 702f      	ANDI R18,0xF
                 ;              	a =  (c & 0x01) * 3;
00070b 2fe2      	MOV  R30,R18
00070c 70e1      	ANDI R30,LOW(0x1)
00070d e0a3      	LDI  R26,LOW(3)
00070e 02ea      	MULS R30,R26
00070f 2d00      	MOV  R16,R0
                 ;              	a |= (c & 0x02) * 6;
000710 2fe2      	MOV  R30,R18
000711 70e2      	ANDI R30,LOW(0x2)
000712 e0a6      	LDI  R26,LOW(6)
000713 02ea      	MULS R30,R26
000714 01f0      	MOVW R30,R0
000715 2b0e      	OR   R16,R30
                 ;              	a |= (c & 0x04) * 12;
000716 2fe2      	MOV  R30,R18
000717 70e4      	ANDI R30,LOW(0x4)
000718 e0ac      	LDI  R26,LOW(12)
000719 02ea      	MULS R30,R26
00071a 01f0      	MOVW R30,R0
00071b 2b0e      	OR   R16,R30
                 ;              	a |= (c & 0x08) * 24;
00071c 2fe2      	MOV  R30,R18
00071d 70e8      	ANDI R30,LOW(0x8)
00071e e1a8      	LDI  R26,LOW(24)
00071f 02ea      	MULS R30,R26
000720 01f0      	MOVW R30,R0
000721 2b0e      	OR   R16,R30
                 ;
                 ;     	        LcdCache[LcdCacheIdx] = b;	//    
000722 01f4      	MOVW R30,R8
000723 58e9      	SUBI R30,LOW(-_LcdCache)
000724 4ffe      	SBCI R31,HIGH(-_LcdCache)
000725 8330      	ST   Z,R19
                 ;     	        LcdCache[LcdCacheIdx+1] = b;    //    
000726 01f4      	MOVW R30,R8
                +
000727 58e8     +SUBI R30 , LOW ( - _LcdCache - ( 1 ) )
000728 4ffe     +SBCI R31 , HIGH ( - _LcdCache - ( 1 ) )
                 	__ADDW1MN _LcdCache,1
000729 8330      	ST   Z,R19
                 ;     	        LcdCache[LcdCacheIdx+84] = a;
00072a 01f4      	MOVW R30,R8
                +
00072b 53e5     +SUBI R30 , LOW ( - _LcdCache - ( 84 ) )
00072c 4ffe     +SBCI R31 , HIGH ( - _LcdCache - ( 84 ) )
                 	__ADDW1MN _LcdCache,84
00072d 8300      	ST   Z,R16
                 ;     	        LcdCache[LcdCacheIdx+85] = a;
00072e 01f4      	MOVW R30,R8
                +
00072f 53e4     +SUBI R30 , LOW ( - _LcdCache - ( 85 ) )
000730 4ffe     +SBCI R31 , HIGH ( - _LcdCache - ( 85 ) )
                 	__ADDW1MN _LcdCache,85
000731 8300      	ST   Z,R16
                 ;     	        LcdCacheIdx = LcdCacheIdx+2;
000732 01f4      	MOVW R30,R8
000733 9632      	ADIW R30,2
000734 014f      	MOVW R8,R30
                 ;     	        }
000735 5f1f      	SUBI R17,-1
000736 cfaa      	RJMP _0x69
                 _0x6A:
                 ;
                 ;     	LcdCache[LcdCacheIdx++] = 0x00;	//   
000737 940e 0e7f 	CALL SUBOPT_0x11
000739 e0a0      	LDI  R26,LOW(0)
00073a 83a0      	STD  Z+0,R26
                 ;     	LcdCache[LcdCacheIdx++] = 0x00;
00073b 940e 0e7f 	CALL SUBOPT_0x11
00073d e0a0      	LDI  R26,LOW(0)
00073e 83a0      	STD  Z+0,R26
                 ; 	}
00073f c48a      	RJMP _0x2080004
                 ;
                 ;void LcdStringBold (unsigned char x, unsigned char y)	//Displays a string at current cursor location
                 ;	{
                 _LcdStringBold:
                 ;	unsigned char i;
                 ;
                 ;	if (x > 13 && y > 5) return;
000740 93aa      	ST   -Y,R26
000741 931a      	ST   -Y,R17
                 ;	x -> Y+2
                 ;	y -> Y+1
                 ;	i -> R17
000742 81aa      	LDD  R26,Y+2
000743 30ae      	CPI  R26,LOW(0xE)
000744 f018      	BRLO _0x6C
000745 81a9      	LDD  R26,Y+1
000746 30a6      	CPI  R26,LOW(0x6)
000747 f408      	BRSH _0x6D
                 _0x6C:
000748 c001      	RJMP _0x6B
                 _0x6D:
000749 c4cb      	RJMP _0x2080003
                 ;	LcdGotoXYFont (x, y);
                 _0x6B:
00074a 940e 0e9b 	CALL SUBOPT_0x15
                 ;	for ( i = 0; i < 14-x; i++ ) if (lcd_buf[i]) LcdChrBold (lcd_buf[i]);
                 _0x6F:
00074c 81ea      	LDD  R30,Y+2
00074d e0f0      	LDI  R31,0
00074e e0ae      	LDI  R26,LOW(14)
00074f e0b0      	LDI  R27,HIGH(14)
000750 940e 0ea2 	CALL SUBOPT_0x16
000752 f464      	BRGE _0x70
000753 940e 0e75 	CALL SUBOPT_0xF
000755 81e0      	LD   R30,Z
000756 30e0      	CPI  R30,0
000757 f029      	BREQ _0x71
000758 940e 0e75 	CALL SUBOPT_0xF
00075a 81a0      	LD   R26,Z
00075b 940e 0eac 	CALL SUBOPT_0x18
                 ;	clean_lcd_buf();
                 _0x71:
00075d 5f1f      	SUBI R17,-1
00075e cfed      	RJMP _0x6F
                 _0x70:
00075f df0d      	RCALL _clean_lcd_buf
                 ;	}
000760 c4b4      	RJMP _0x2080003
                 ;
                 ;void LcdChrBig (int ch)	//Displays a character at current cursor location and increment cursor location
                 ; 	{
                 ;     	unsigned char i;
                 ;     	unsigned char a = 0, b = 0, c = 0;
                 ;
                 ;     	for ( i = 0; i < 5; i++ )
                 ;	ch -> Y+4
                 ;	i -> R17
                 ;	a -> R16
                 ;	b -> R19
                 ;	c -> R18
                 ;     	        {
                 ;     	        c = table[(ch*5+i)];		//   
                 ;
                 ;     	        b =  (c & 0x01) * 3;            //""    
                 ;              	b |= (c & 0x02) * 6;
                 ;              	b |= (c & 0x04) * 12;
                 ;              	b |= (c & 0x08) * 24;
                 ;
                 ;              	c >>= 4;
                 ;              	a =  (c & 0x01) * 3;
                 ;              	a |= (c & 0x02) * 6;
                 ;              	a |= (c & 0x04) * 12;
                 ;              	a |= (c & 0x08) * 24;
                 ;     	        LcdCache[LcdCacheIdx] = b;
                 ;     	        LcdCache[LcdCacheIdx+84] = a;
                 ;     	        LcdCacheIdx = LcdCacheIdx+1;
                 ;     	        }
                 ;
                 ;     	LcdCache[LcdCacheIdx++] = 0x00;
                 ;     	}
                 ;
                 ;void LcdStringBig (unsigned char x, unsigned char y)	//Displays a string at current cursor location
                 ;	{
                 ;	unsigned char i;
                 ;
                 ;	if (x > 14 && y > 5) return;
                 ;	x -> Y+2
                 ;	y -> Y+1
                 ;	i -> R17
                 ;	LcdGotoXYFont (x, y);
                 ;	for ( i = 0; i < 15-x; i++ ) if (lcd_buf[i]) LcdChrBig (lcd_buf[i]);
                 ;	clean_lcd_buf();
                 ;	}
                 ;
                 ;
                 ;
                 ;//***************************************************
                 ;#define IconSize 3   //   !  1
                 ;#define TankCapacity 55 // 
                 ;#define MinEngineTemperature 0  //    
                 ;#define MaxEngineTemperature 150 //    
                 ;#define EngineTemperatureWarning 100 //    
                 ;#define MaxBaseTemperature 99 //    ( /)
                 ;#define MinBaseTemperature -50 //    ( /)
                 ;#define OutTemperatureWarning 3 //      
                 ;#define MinBatteryCurrent 100 //     (*10)
                 ;#define MaxBatteryCurrent 148 //     (*10)
                 ;#define BtnPort PINB.6  //   "" 
                 ;#define PulsesAmount 1   //-      1  
                 ;
                 ;int _outTemperature,_internalTemperature,_engineTemperature;
                 ;unsigned char outTempDevice=1, internalTempDevice=2, engineTempDevice=0;
                 
                 	.DSEG
                 ;
                 ;// maximum number of DS1820 devices
                 ;// connected to the 1 Wire bus
                 ;#define MAX_DS18B20 3
                 ;// number of DS1820 devices
                 ;// connected to the 1 Wire bus
                 ;unsigned char ds18b20_devices;
                 ;// DS1820 devices ROM code storage area,
                 ;// 9 bytes are used for each device
                 ;// (see the w1_search function description in the help)
                 ;unsigned char ds18b20_rom_codes[MAX_DS18B20][9];
                 ;unsigned int _arrTemplate[] = {0,1,2,3};
                 ;unsigned int _template;
                 ;float _volt;
                 ;unsigned int _btnCounter, _tempCounter;;
                 ;unsigned int _arrsize = sizeof(_arrTemplate)/sizeof(_arrTemplate[0]);
                 ;unsigned int _speed;
                 ;unsigned int _tacho;
                 ;unsigned int _speedTimerOverflow;
                 ;unsigned int _tachoTimerOverflow;
                 ;unsigned int _speedoPulsesOldValue;
                 ;unsigned int _tachoPulsesOldValue;
                 ;
                 ;
                 ;//ASCII
                 ;flash char pic1[] =
                 ;{
                 ;0x00,0x00,0x00,0x00,0x00,0x00,
                 ;0x00,0x00,0x00,0x00,0x00,0x00,
                 ;0x00,0x00,0x00,0x00,0x00,0x00,
                 ;0x00,0x00,0x00,0x00,0x00,0x00,
                 ;0x00,0x00,0x00,0x00,0x00,0x00,
                 ;0x00,0x00,0x00,0x00,0x00,0x00,
                 ;0x00,0x00,0x00,0x00,0x00,0x00,
                 ;0x00,0x00,0x00,0x00,0x00,0x00,
                 ;0x00,0x00,0x00,0x00,0x00,0x00,
                 ;0x00,0x00,0x00,0x00,0x00,0x00,
                 ;0x00,0x00,0x00,0x00,0x00,0x00,
                 ;0x00,0x00,0x00,0x00,0x00,0x00,
                 ;0x00,0x00,0x00,0x00,0x00,0x00,
                 ;0x00,0x00,0x00,0x00,0x00,0x00,
                 ;0x00,0xFC,0x04,0x04,0x04,0xFC,
                 ;0x08,0x08,0x00,0x00,0x00,0x00,
                 ;0x00,0x00,0x00,0x00,0x00,0x00,
                 ;0x00,0x00,0x00,0x00,0x00,0x00,
                 ;0x00,0x00,0x00,0x00,0x00,0x00,
                 ;0x00,0x00,0x00,0x00,0x00,0x00,
                 ;0x00,0x00,0x00,0x00,0x00,0x00,
                 ;0x00,0x00,0x00,0x00,0x00,0x00,
                 ;0x00,0x00,0x00,0x00,0x00,0x00,
                 ;0x00,0x00,0x00,0x00,0x00,0x00,
                 ;0x00,0x00,0x00,0x00,0x00,0x00,
                 ;0x00,0x00,0x00,0x00,0x00,0x00,
                 ;0x00,0x00,0x00,0x00,0x00,0xFC,
                 ;0x04,0x04,0xFC,0x20,0x20,0x00,
                 ;0x00,0xFF,0x00,0x00,0x00,0xFF,
                 ;0x02,0x00,0x00,0x00,0x00,0x00,
                 ;0x00,0x00,0x00,0x00,0x00,0x00,
                 ;0x00,0x00,0x00,0x00,0x00,0x00,
                 ;0x00,0x00,0x00,0x00,0x00,0x00,
                 ;0x00,0x00,0x00,0x00,0x00,0x00,
                 ;0x00,0x00,0x00,0x00,0x00,0x00,
                 ;0x00,0x00,0x00,0x00,0x00,0x00,
                 ;0x00,0x00,0x00,0x00,0x00,0x00,
                 ;0x00,0x00,0x00,0x00,0x00,0x00,
                 ;0x00,0x00,0x00,0x00,0x00,0x00,
                 ;0x00,0x00,0x00,0x00,0x00,0x00,
                 ;0x00,0x00,0x40,0x40,0x40,0xFF,
                 ;0x00,0x00,0xFF,0x04,0x04,0x00,
                 ;0x00,0xFF,0x00,0x00,0x00,0xFF,
                 ;0x81,0x01,0x00,0x00,0x00,0x00,
                 ;0x00,0x00,0x00,0x00,0x00,0x00,
                 ;0x00,0x00,0x00,0x00,0x00,0x00,
                 ;0x00,0x00,0x00,0x00,0x00,0x00,
                 ;0x00,0x00,0x00,0x00,0x00,0x00,
                 ;0x00,0x00,0x00,0x00,0x00,0x00,
                 ;0x00,0x00,0x00,0x00,0x00,0x00,
                 ;0x00,0x00,0x00,0x00,0x00,0x00,
                 ;0x00,0x00,0x00,0x00,0x00,0x00,
                 ;0x00,0x00,0x00,0x00,0x00,0x00,
                 ;0x00,0x00,0x00,0x00,0x00,0x00,
                 ;0x00,0x00,0x10,0x10,0x92,0xFF,
                 ;0x00,0x00,0xFF,0x00,0x00,0x00,
                 ;0x00,0x7F,0x40,0x40,0x40,0x7F,
                 ;0x10,0x10,0x00,0x00,0x00,0x00,
                 ;0x00,0x00,0x00,0x00,0x00,0x00,
                 ;0x00,0x00,0x00,0x00,0x00,0x00,
                 ;0x00,0x00,0x00,0x00,0x00,0x00,
                 ;0x00,0x00,0x00,0x00,0x00,0x00,
                 ;0x00,0x00,0x00,0x00,0x00,0x00,
                 ;0x00,0x00,0x00,0x00,0x00,0x00,
                 ;0x00,0x00,0x00,0x00,0x00,0x00,
                 ;0x00,0x00,0x00,0x00,0x00,0x00,
                 ;0x00,0x00,0x00,0x00,0x00,0x00,
                 ;0x00,0x00,0x00,0x00,0x00,0x00,
                 ;0x00,0x00,0x04,0x04,0x24,0xFF,
                 ;0x00,0x00,0xFF,0x00,0x00,0x00,
                 ;0x80,0xFF,0xF9,0xF9,0xF9,0xFF,
                 ;0x90,0x22,0x3C,0x00,0x00,0x00,
                 ;0x00,0x00,0x00,0x00,0x00,0x00,
                 ;0x00,0x00,0x00,0x00,0x00,0x00,
                 ;0x00,0x00,0x00,0x00,0x00,0x00,
                 ;0x00,0x00,0x00,0x00,0x00,0x00,
                 ;0x00,0x00,0x00,0x00,0x00,0x00,
                 ;0x00,0x00,0x00,0x00,0x00,0x00,
                 ;0x00,0x00,0x00,0x00,0x00,0x00,
                 ;0x00,0x00,0x00,0x00,0x00,0x00,
                 ;0x00,0x00,0x00,0x00,0x00,0x00,
                 ;0x00,0x00,0x00,0x00,0x00,0x00,
                 ;0x00,0x00,0x1C,0x3E,0x7F,0xF7,
                 ;0x81,0xB7,0xFD,0x7F,0x3E,0x1C
                 ;}; // FF
                 ;
                 ;
                 ;flash char icon[] =
                 ;{
                 ;0xFF,0xFF,0xFF,0xFF,0xFF,0xFF,0xFF,0xFF,0xFF,0xFF,0xFF,0xFF,0xFF,0xFF,0xFF,0xFF,0xFF,0xFF, //00 //test
                 ;0xFF,0x81,0xFD,0x91,0xFD,0x81,0xB9,0xC5,0xC5,0xB9,0x81,0x85,0xFD,0x85,0x81,0xDD,0x81,0xFF,// 01//hot
                 ;0x00,0xFE,0x82,0x93,0x93,0x92,0x82,0x82,0x82,0x82,0x92,0xBB,0x93,0x82,0xFE,0x00,0x00,0x00,// 02//bat
                 ;0x00,0xFF,0x81,0xDD,0x81,0xFF,0x00,0x49,0x2A,0x1C,0x7F,0x1C,0x2A,0x49,0x00,0x00,0x00,0x00,// 03//ace
                 ;0x00,0x00,0x00,0x00,0x00,0x00,0x00,0x00,0x00,0x00,0x00,0x00,0x00,0x00,0x00,0x00,0x00,0x00,// 04//blank
                 ;0x00,0x7E,0x04,0x18,0x20,0x7E,0x00,0x3C,0x42,0x42,0x42,0x3C,0x00,0x7E,0x12,0x32,0x4C,0x00,// 05//nor
                 ;0x7E,0x04,0x08,0x04,0x7E,0x00,0x78,0x14,0x12,0x14,0x78,0x00,0x7E,0x40,0x40,0x40,0x00,0x00,// 06//mal
                 ;0x00,0x00,0x00,0x00,0x00,0x00,0x00,0x00,0x00,0x7E,0x08,0x08,0x7E,0x00,0x7A,0x00,0x3C,0x42,// 07//hi
                 ;0x52,0x34,0x00,0x7E,0x08,0x08,0x7E,0x00,0x00,0x5E,0x00,0x00,0x00,0x00,0x00,0x00,0x00,0x00,// 08//gh
                 ;0x00,0x00,0x00,0x00,0x00,0x00,0x00,0x00,0x00,0x7E,0x40,0x40,0x40,0x00,0x3C,0x42,0x42,0x42,// 09//lo
                 ;0x3C,0x00,0x7E,0x20,0x10,0x20,0x7E,0x00,0x00,0x5E,0x00,0x00,0x00,0x00,0x00,0x00,0x00,0x00,// 10//w!
                 ;};
                 ;
                 ;void baseTemplate(unsigned int TankLevel, int EngineTemperature)
                 ;{
                 
                 	.CSEG
                 _baseTemplate:
                 ;    float TemperatureProcent, TankProcent;
                 ;
                 ;    if (EngineTemperature > MaxEngineTemperature)   EngineTemperature =  MaxEngineTemperature;
000761 93ba      	ST   -Y,R27
000762 93aa      	ST   -Y,R26
000763 9728      	SBIW R28,8
                 ;	TankLevel -> Y+10
                 ;	EngineTemperature -> Y+8
                 ;	TemperatureProcent -> Y+4
                 ;	TankProcent -> Y+0
000764 85a8      	LDD  R26,Y+8
000765 85b9      	LDD  R27,Y+8+1
000766 39a7      	CPI  R26,LOW(0x97)
000767 e0e0      	LDI  R30,HIGH(0x97)
000768 07be      	CPC  R27,R30
000769 f024      	BRLT _0x80
00076a e9e6      	LDI  R30,LOW(150)
00076b e0f0      	LDI  R31,HIGH(150)
00076c 87e8      	STD  Y+8,R30
00076d 87f9      	STD  Y+8+1,R31
                 ;    if (EngineTemperature < MinEngineTemperature)   EngineTemperature =  MinEngineTemperature;
                 _0x80:
00076e 85a9      	LDD  R26,Y+9
00076f 23aa      	TST  R26
000770 f41a      	BRPL _0x81
000771 e0e0      	LDI  R30,LOW(0)
000772 87e8      	STD  Y+8,R30
000773 87e9      	STD  Y+8+1,R30
                 ;    sprintf (lcd_buf, "%3u", EngineTemperature);
                 _0x81:
000774 940e 0eaf 	CALL SUBOPT_0x19
                +
000776 e4e8     +LDI R30 , LOW ( 2 * _0x0 + ( 0 ) )
000777 e0f8     +LDI R31 , HIGH ( 2 * _0x0 + ( 0 ) )
                 	__POINTW1FN _0x0,0
000778 93fa      	ST   -Y,R31
000779 93ea      	ST   -Y,R30
00077a 85ec      	LDD  R30,Y+12
00077b 85fd      	LDD  R31,Y+12+1
00077c 940e 0eb4 	CALL SUBOPT_0x1A
                 ;    LcdString(12,1);
00077e e0ec      	LDI  R30,LOW(12)
00077f 93ea      	ST   -Y,R30
000780 e0a1      	LDI  R26,LOW(1)
000781 940e 0ebd 	CALL SUBOPT_0x1B
                 ;    sprintf (lcd_buf, "%u", TankLevel);
                +
000783 e4ec     +LDI R30 , LOW ( 2 * _0x0 + ( 4 ) )
000784 e0f8     +LDI R31 , HIGH ( 2 * _0x0 + ( 4 ) )
                 	__POINTW1FN _0x0,4
000785 93fa      	ST   -Y,R31
000786 93ea      	ST   -Y,R30
000787 85ee      	LDD  R30,Y+14
000788 85ff      	LDD  R31,Y+14+1
000789 940e 0ec0 	CALL SUBOPT_0x1C
                 ;    LcdString(1,1);
00078b e0e1      	LDI  R30,LOW(1)
00078c 93ea      	ST   -Y,R30
00078d e0a1      	LDI  R26,LOW(1)
00078e df29      	RCALL _LcdString
                 ;    TemperatureProcent = (long)EngineTemperature*100/MaxEngineTemperature;
00078f 85a8      	LDD  R26,Y+8
000790 85b9      	LDD  R27,Y+8+1
000791 940e 11aa 	CALL __CWD2
000793 940e 0ec9 	CALL SUBOPT_0x1D
                +
000795 e9e6     +LDI R30 , LOW ( 0x96 )
000796 e0f0     +LDI R31 , HIGH ( 0x96 )
000797 e060     +LDI R22 , BYTE3 ( 0x96 )
000798 e070     +LDI R23 , BYTE4 ( 0x96 )
                 	__GETD1N 0x96
000799 940e 1223 	CALL __DIVD21
00079b 940e 10f1 	CALL __CDF1
                +
00079d 83ec     +STD Y + 4 , R30
00079e 83fd     +STD Y + 4 + 1 , R31
00079f 836e     +STD Y + 4 + 2 , R22
0007a0 837f     +STD Y + 4 + 3 , R23
                 	__PUTD1S 4
                 ;    LcdBar(78, 10, 79, 39, TemperatureProcent);
0007a1 e4ee      	LDI  R30,LOW(78)
0007a2 e0f0      	LDI  R31,HIGH(78)
0007a3 940e 0ed2 	CALL SUBOPT_0x1E
0007a5 e4ef      	LDI  R30,LOW(79)
0007a6 e0f0      	LDI  R31,HIGH(79)
0007a7 93fa      	ST   -Y,R31
0007a8 93ea      	ST   -Y,R30
0007a9 e2e7      	LDI  R30,LOW(39)
0007aa e0f0      	LDI  R31,HIGH(39)
0007ab 93fa      	ST   -Y,R31
0007ac 93ea      	ST   -Y,R30
                +
0007ad 85ec     +LDD R30 , Y + 12
0007ae 85fd     +LDD R31 , Y + 12 + 1
0007af 856e     +LDD R22 , Y + 12 + 2
0007b0 857f     +LDD R23 , Y + 12 + 3
                 	__GETD1S 12
0007b1 940e 10b8 	CALL __CFD1U
0007b3 2fae      	MOV  R26,R30
0007b4 de53      	RCALL _LcdBar
                 ;    TankProcent = (long)TankLevel*100/TankCapacity;
0007b5 85aa      	LDD  R26,Y+10
0007b6 85bb      	LDD  R27,Y+10+1
0007b7 2788      	CLR  R24
0007b8 2799      	CLR  R25
0007b9 940e 0ec9 	CALL SUBOPT_0x1D
                +
0007bb e3e7     +LDI R30 , LOW ( 0x37 )
0007bc e0f0     +LDI R31 , HIGH ( 0x37 )
0007bd e060     +LDI R22 , BYTE3 ( 0x37 )
0007be e070     +LDI R23 , BYTE4 ( 0x37 )
                 	__GETD1N 0x37
0007bf 940e 1223 	CALL __DIVD21
0007c1 940e 10f1 	CALL __CDF1
0007c3 940e 1265 	CALL __PUTD1S0
                 ;    LcdBar(2, 10, 4, 37, TankProcent);
0007c5 e0e2      	LDI  R30,LOW(2)
0007c6 e0f0      	LDI  R31,HIGH(2)
0007c7 940e 0ed2 	CALL SUBOPT_0x1E
0007c9 940e 0ed9 	CALL SUBOPT_0x1F
0007cb e2e5      	LDI  R30,LOW(37)
0007cc e0f0      	LDI  R31,HIGH(37)
0007cd 93fa      	ST   -Y,R31
0007ce 93ea      	ST   -Y,R30
                +
0007cf 85e8     +LDD R30 , Y + 8
0007d0 85f9     +LDD R31 , Y + 8 + 1
0007d1 856a     +LDD R22 , Y + 8 + 2
0007d2 857b     +LDD R23 , Y + 8 + 3
                 	__GETD1S 8
0007d3 940e 10b8 	CALL __CFD1U
0007d5 2fae      	MOV  R26,R30
0007d6 de31      	RCALL _LcdBar
                 ;}
0007d7 c297      	RJMP _0x2080006
                 ;
                 ;void tempDeviceInit(void)
                 ;{
                 _tempDeviceInit:
                 ;    unsigned int i;
                 ;
                 ;    ds18b20_devices=w1_search(0xf0,ds18b20_rom_codes);
0007d8 931a      	ST   -Y,R17
0007d9 930a      	ST   -Y,R16
                 ;	i -> R16,R17
0007da efe0      	LDI  R30,LOW(240)
0007db 93ea      	ST   -Y,R30
0007dc e7a5      	LDI  R26,LOW(_ds18b20_rom_codes)
0007dd e0b3      	LDI  R27,HIGH(_ds18b20_rom_codes)
0007de 940e 1006 	CALL _w1_search
0007e0 93e0 0374 	STS  _ds18b20_devices,R30
                 ;
                 ;    for (i=0; i<ds18b20_devices; i++)
                +
0007e2 e000     +LDI R16 , LOW ( 0 )
0007e3 e010     +LDI R17 , HIGH ( 0 )
                 	__GETWRN 16,17,0
                 _0x83:
0007e4 91e0 0374 	LDS  R30,_ds18b20_devices
0007e6 01d8      	MOVW R26,R16
0007e7 e0f0      	LDI  R31,0
0007e8 17ae      	CP   R26,R30
0007e9 07bf      	CPC  R27,R31
0007ea f490      	BRSH _0x84
                 ;    {
                 ;        ds18b20_init(&ds18b20_rom_codes[i][0],-30,125,DS18B20_9BIT_RES);
                +
0007eb e0a9     +LDI R26 , 9
0007ec 9fa0     +MUL R26 , R16
0007ed 01f0     +MOVW R30 , R0
0007ee 9fa1     +MUL R26 , R17
0007ef 0df0     +ADD R31 , R0
                 	__MULBNWRU 16,17,9
0007f0 58eb      	SUBI R30,LOW(-_ds18b20_rom_codes)
0007f1 4ffc      	SBCI R31,HIGH(-_ds18b20_rom_codes)
0007f2 93fa      	ST   -Y,R31
0007f3 93ea      	ST   -Y,R30
0007f4 eee2      	LDI  R30,LOW(226)
0007f5 93ea      	ST   -Y,R30
0007f6 e7ed      	LDI  R30,LOW(125)
0007f7 93ea      	ST   -Y,R30
0007f8 e0a0      	LDI  R26,LOW(0)
0007f9 d41e      	RCALL _ds18b20_init
                 ;    }
                +
0007fa 5f0f     +SUBI R16 , LOW ( - 1 )
0007fb 4f1f     +SBCI R17 , HIGH ( - 1 )
                 	__ADDWRN 16,17,1
0007fc cfe7      	RJMP _0x83
                 _0x84:
                 ;}
0007fd c0b5      	RJMP _0x2080007
                 ;
                 ;void getTemperature(unsigned int devices)
                 ;{
                 _getTemperature:
                 ;
                 ;    switch (devices)
0007fe 940e 0e8f 	CALL SUBOPT_0x13
                 ;	devices -> Y+0
                 ;    {
                 ;        case 3:
000800 30e3      	CPI  R30,LOW(0x3)
000801 e0a0      	LDI  R26,HIGH(0x3)
000802 07fa      	CPC  R31,R26
000803 f431      	BRNE _0x88
                 ;            _internalTemperature =  ds18b20_temperature(&ds18b20_rom_codes[internalTempDevice][0]);
000804 91e0 0372 	LDS  R30,_internalTempDevice
000806 940e 0ede 	CALL SUBOPT_0x20
000808 016f      	MOVW R12,R30
                 ;        case 2:
000809 c004      	RJMP _0x89
                 _0x88:
00080a 30e2      	CPI  R30,LOW(0x2)
00080b e0a0      	LDI  R26,HIGH(0x2)
00080c 07fa      	CPC  R31,R26
00080d f431      	BRNE _0x8A
                 _0x89:
                 ;            _outTemperature =  ds18b20_temperature(&ds18b20_rom_codes[outTempDevice][0]);
00080e 91e0 0371 	LDS  R30,_outTempDevice
000810 940e 0ede 	CALL SUBOPT_0x20
000812 015f      	MOVW R10,R30
                 ;        case 1:
000813 c004      	RJMP _0x8B
                 _0x8A:
000814 30e1      	CPI  R30,LOW(0x1)
000815 e0a0      	LDI  R26,HIGH(0x1)
000816 07fa      	CPC  R31,R26
000817 f479      	BRNE _0x87
                 _0x8B:
                 ;            _engineTemperature = ds18b20_temperature(&ds18b20_rom_codes[engineTempDevice][0]);
000818 91e0 0373 	LDS  R30,_engineTempDevice
00081a e0a9      	LDI  R26,LOW(9)
00081b 9fea      	MUL  R30,R26
00081c 01f0      	MOVW R30,R0
00081d 58eb      	SUBI R30,LOW(-_ds18b20_rom_codes)
00081e 4ffc      	SBCI R31,HIGH(-_ds18b20_rom_codes)
00081f 01df      	MOVW R26,R30
000820 d3ad      	RCALL _ds18b20_temperature
000821 e6af      	LDI  R26,LOW(__engineTemperature)
000822 e0b3      	LDI  R27,HIGH(__engineTemperature)
000823 940e 10ba 	CALL __CFD1
000825 93ed      	ST   X+,R30
000826 93fc      	ST   X,R31
                 ;    };
                 _0x87:
                 ;}
000827 c2a0      	RJMP _0x2080005
                 ;
                 ;void iconView (int ch, unsigned int inv)
                 ;{
                 _iconView:
                 ;    CharPrint(ch,6*IconSize,icon,inv,0);
000828 93ba      	ST   -Y,R27
000829 93aa      	ST   -Y,R26
                 ;	ch -> Y+2
                 ;	inv -> Y+0
00082a 81ea      	LDD  R30,Y+2
00082b 81fb      	LDD  R31,Y+2+1
00082c 93fa      	ST   -Y,R31
00082d 93ea      	ST   -Y,R30
00082e 940e 0ee9 	CALL SUBOPT_0x21
000830 93fa      	ST   -Y,R31
000831 93ea      	ST   -Y,R30
000832 81ee      	LDD  R30,Y+6
000833 81ff      	LDD  R31,Y+6+1
000834 940e 0ef0 	CALL SUBOPT_0x22
000836 de42      	RCALL _CharPrint
                 ;}
                 _0x2080008:
000837 9624      	ADIW R28,4
000838 9508      	RET
                 ;
                 ;void iconClear (void)
                 ;{
                 _iconClear:
                 ;    LcdGotoXYFont(3,1);
000839 e0e3      	LDI  R30,LOW(3)
00083a 940e 0ef5 	CALL SUBOPT_0x23
                 ;    CharPrint(4,6*IconSize,icon,0,0);
00083c 940e 0ed9 	CALL SUBOPT_0x1F
00083e 940e 0ee9 	CALL SUBOPT_0x21
000840 940e 0e94 	CALL SUBOPT_0x14
000842 940e 0ef9 	CALL SUBOPT_0x24
                 ;    CharPrint(4,6*IconSize,icon,0,0);
000844 940e 0ee9 	CALL SUBOPT_0x21
000846 940e 0e94 	CALL SUBOPT_0x14
000848 940e 0ef9 	CALL SUBOPT_0x24
                 ;    CharPrint(4,6*IconSize,icon,0,0);
00084a 940e 0ee9 	CALL SUBOPT_0x21
00084c 940e 0e94 	CALL SUBOPT_0x14
00084e e0a0      	LDI  R26,LOW(0)
00084f e0b0      	LDI  R27,0
000850 de28      	RCALL _CharPrint
                 ;}
000851 9508      	RET
                 ;
                 ;int tempProcessing(int temperature)
                 ;{
                 _tempProcessing:
                 ;  if (temperature > MaxBaseTemperature) temperature = MaxBaseTemperature;
000852 93ba      	ST   -Y,R27
000853 93aa      	ST   -Y,R26
                 ;	temperature -> Y+0
000854 81a8      	LD   R26,Y
000855 81b9      	LDD  R27,Y+1
000856 36a4      	CPI  R26,LOW(0x64)
000857 e0e0      	LDI  R30,HIGH(0x64)
000858 07be      	CPC  R27,R30
000859 f024      	BRLT _0x8D
00085a e6e3      	LDI  R30,LOW(99)
00085b e0f0      	LDI  R31,HIGH(99)
00085c 83e8      	ST   Y,R30
00085d 83f9      	STD  Y+1,R31
                 ;  if (temperature < MinBaseTemperature) temperature = MinBaseTemperature;
                 _0x8D:
00085e 81a8      	LD   R26,Y
00085f 81b9      	LDD  R27,Y+1
000860 3cae      	CPI  R26,LOW(0xFFCE)
000861 efef      	LDI  R30,HIGH(0xFFCE)
000862 07be      	CPC  R27,R30
000863 f424      	BRGE _0x8E
000864 ecee      	LDI  R30,LOW(65486)
000865 efff      	LDI  R31,HIGH(65486)
000866 83e8      	ST   Y,R30
000867 83f9      	STD  Y+1,R31
                 ;  return temperature;
                 _0x8E:
000868 81e8      	LD   R30,Y
000869 81f9      	LDD  R31,Y+1
00086a c25d      	RJMP _0x2080005
                 ;}
                 ;
                 ;void readADC(unsigned int adcValue)
                 ;{
                 _readADC:
                 ;  _volt = adcValue*0.14663;
00086b 940e 0e8f 	CALL SUBOPT_0x13
                 ;	adcValue -> Y+0
00086d 2766      	CLR  R22
00086e 2777      	CLR  R23
00086f 940e 10f1 	CALL __CDF1
                +
000871 e2ad     +LDI R26 , LOW ( 0x3E16262D )
000872 e2b6     +LDI R27 , HIGH ( 0x3E16262D )
000873 e186     +LDI R24 , BYTE3 ( 0x3E16262D )
000874 e39e     +LDI R25 , BYTE4 ( 0x3E16262D )
                 	__GETD2N 0x3E16262D
000875 940e 111f 	CALL __MULF12
000877 93e0 039a 	STS  __volt,R30
000879 93f0 039b 	STS  __volt+1,R31
00087b 9360 039c 	STS  __volt+2,R22
00087d 9370 039d 	STS  __volt+3,R23
                 ;}
00087f c248      	RJMP _0x2080005
                 ;
                 ;void checkBatState(void)
                 ;{
                 _checkBatState:
                 ;    unsigned int xPos;
                 ;
                 ;    if ((int)_volt < 130) xPos = 9;  //low
000880 931a      	ST   -Y,R17
000881 930a      	ST   -Y,R16
                 ;	xPos -> R16,R17
000882 940e 0efe 	CALL SUBOPT_0x25
000884 38e2      	CPI  R30,LOW(0x82)
000885 e0a0      	LDI  R26,HIGH(0x82)
000886 07fa      	CPC  R31,R26
000887 f414      	BRGE _0x8F
                +
000888 e009     +LDI R16 , LOW ( 9 )
000889 e010     +LDI R17 , HIGH ( 9 )
                 	__GETWRN 16,17,9
                 ;    if ((int)_volt < 145 && (int)_volt >= 130) xPos = 5; //normal
                 _0x8F:
00088a 940e 0efe 	CALL SUBOPT_0x25
00088c 39e1      	CPI  R30,LOW(0x91)
00088d e0a0      	LDI  R26,HIGH(0x91)
00088e 07fa      	CPC  R31,R26
00088f f424      	BRGE _0x91
000890 38e2      	CPI  R30,LOW(0x82)
000891 e0a0      	LDI  R26,HIGH(0x82)
000892 07fa      	CPC  R31,R26
000893 f40c      	BRGE _0x92
                 _0x91:
000894 c002      	RJMP _0x90
                 _0x92:
                +
000895 e005     +LDI R16 , LOW ( 5 )
000896 e010     +LDI R17 , HIGH ( 5 )
                 	__GETWRN 16,17,5
                 ;    if ((int)_volt >= 145) xPos = 7;  //high
                 _0x90:
000897 940e 0efe 	CALL SUBOPT_0x25
000899 39e1      	CPI  R30,LOW(0x91)
00089a e0a0      	LDI  R26,HIGH(0x91)
00089b 07fa      	CPC  R31,R26
00089c f014      	BRLT _0x93
                +
00089d e007     +LDI R16 , LOW ( 7 )
00089e e010     +LDI R17 , HIGH ( 7 )
                 	__GETWRN 16,17,7
                 ;    LcdGotoXYFont(5,5);
                 _0x93:
00089f e0e5      	LDI  R30,LOW(5)
0008a0 93ea      	ST   -Y,R30
0008a1 e0a5      	LDI  R26,LOW(5)
0008a2 ddaf      	RCALL _LcdGotoXYFont
                 ;    iconView(xPos,1);
0008a3 931a      	ST   -Y,R17
0008a4 930a      	ST   -Y,R16
0008a5 940e 0e2c 	CALL SUBOPT_0x2
0008a7 df80      	RCALL _iconView
                 ;    LcdGotoXYFont(8,5);
0008a8 e0e8      	LDI  R30,LOW(8)
0008a9 93ea      	ST   -Y,R30
0008aa e0a5      	LDI  R26,LOW(5)
0008ab dda6      	RCALL _LcdGotoXYFont
                 ;    iconView(xPos+1,1);
0008ac 01f8      	MOVW R30,R16
0008ad 9631      	ADIW R30,1
0008ae 93fa      	ST   -Y,R31
0008af 93ea      	ST   -Y,R30
0008b0 940e 0e2c 	CALL SUBOPT_0x2
0008b2 df75      	RCALL _iconView
                 ;}
                 _0x2080007:
0008b3 9109      	LD   R16,Y+
0008b4 9119      	LD   R17,Y+
0008b5 9508      	RET
                 ;
                 ;void template(unsigned int numTemplate)
                 ;{
                 _template:
                 ;    int internalTemperature;
                 ;    int outTemperature;
                 ;
                 ;    switch (numTemplate)
0008b6 940e 0ea7 	CALL SUBOPT_0x17
                 ;	numTemplate -> Y+4
                 ;	internalTemperature -> R16,R17
                 ;	outTemperature -> R18,R19
0008b8 81ec      	LDD  R30,Y+4
0008b9 81fd      	LDD  R31,Y+4+1
                 ;    {
                 ;        case 0: //temperature template
0008ba 9730      	SBIW R30,0
0008bb f5a1      	BRNE _0x97
                 ;            internalTemperature = tempProcessing(_internalTemperature);
0008bc 01d6      	MOVW R26,R12
0008bd df94      	RCALL _tempProcessing
0008be 018f      	MOVW R16,R30
                 ;            outTemperature = tempProcessing(_outTemperature);
0008bf 01d5      	MOVW R26,R10
0008c0 df91      	RCALL _tempProcessing
0008c1 019f      	MOVW R18,R30
                 ;            LcdGotoXYFont(3,2);
0008c2 e0e3      	LDI  R30,LOW(3)
0008c3 93ea      	ST   -Y,R30
0008c4 e0a2      	LDI  R26,LOW(2)
0008c5 dd8c      	RCALL _LcdGotoXYFont
                 ;	        LcdChrBold(0x03);
0008c6 e0a3      	LDI  R26,LOW(3)
0008c7 940e 0eac 	CALL SUBOPT_0x18
                 ;            LcdGotoXYFont(3,4);
0008c9 e0e3      	LDI  R30,LOW(3)
0008ca 93ea      	ST   -Y,R30
0008cb e0a4      	LDI  R26,LOW(4)
0008cc dd85      	RCALL _LcdGotoXYFont
                 ;	        LcdChrBold(0x04);
0008cd e0a4      	LDI  R26,LOW(4)
0008ce 940e 0eac 	CALL SUBOPT_0x18
                 ;            sprintf (lcd_buf, "%3i\x02", _engineTemperature);
0008d0 940e 0eaf 	CALL SUBOPT_0x19
                +
0008d2 e4ef     +LDI R30 , LOW ( 2 * _0x0 + ( 7 ) )
0008d3 e0f8     +LDI R31 , HIGH ( 2 * _0x0 + ( 7 ) )
                 	__POINTW1FN _0x0,7
0008d4 93fa      	ST   -Y,R31
0008d5 93ea      	ST   -Y,R30
0008d6 91e0 036f 	LDS  R30,__engineTemperature
0008d8 91f0 0370 	LDS  R31,__engineTemperature+1
0008da 940e 0eb4 	CALL SUBOPT_0x1A
                 ;            LcdStringBold(5,2);
0008dc e0e5      	LDI  R30,LOW(5)
0008dd 93ea      	ST   -Y,R30
0008de e0a2      	LDI  R26,LOW(2)
0008df 940e 0f09 	CALL SUBOPT_0x26
                 ;            //sprintf (lcd_buf, "%3i\x02", internalTemperature);
                 ;            sprintf (lcd_buf, "%3i\x02", outTemperature);
                +
0008e1 e4ef     +LDI R30 , LOW ( 2 * _0x0 + ( 7 ) )
0008e2 e0f8     +LDI R31 , HIGH ( 2 * _0x0 + ( 7 ) )
                 	__POINTW1FN _0x0,7
0008e3 93fa      	ST   -Y,R31
0008e4 93ea      	ST   -Y,R30
0008e5 01f9      	MOVW R30,R18
0008e6 940e 0eb4 	CALL SUBOPT_0x1A
                 ;            LcdStringBold(5,4);
0008e8 e0e5      	LDI  R30,LOW(5)
0008e9 93ea      	ST   -Y,R30
0008ea e0a4      	LDI  R26,LOW(4)
0008eb 940e 0f09 	CALL SUBOPT_0x26
                 ;            sprintf (lcd_buf, "Thermo");
                +
0008ed e5e4     +LDI R30 , LOW ( 2 * _0x0 + ( 12 ) )
0008ee e0f8     +LDI R31 , HIGH ( 2 * _0x0 + ( 12 ) )
                 	__POINTW1FN _0x0,12
0008ef c0b5      	RJMP _0xBA
                 ;	        LcdString(5,6);
                 ;            break;
                 ;        case 1:
                 _0x97:
0008f0 30e1      	CPI  R30,LOW(0x1)
0008f1 e0a0      	LDI  R26,HIGH(0x1)
0008f2 07fa      	CPC  R31,R26
0008f3 f549      	BRNE _0x98
                 ;            sprintf (lcd_buf, "%2i.%iV", (int)_volt/10, (int)_volt%10);
0008f4 940e 0eaf 	CALL SUBOPT_0x19
                +
0008f6 e5eb     +LDI R30 , LOW ( 2 * _0x0 + ( 19 ) )
0008f7 e0f8     +LDI R31 , HIGH ( 2 * _0x0 + ( 19 ) )
                 	__POINTW1FN _0x0,19
0008f8 93fa      	ST   -Y,R31
0008f9 93ea      	ST   -Y,R30
0008fa 940e 0efe 	CALL SUBOPT_0x25
0008fc 01df      	MOVW R26,R30
0008fd e0ea      	LDI  R30,LOW(10)
0008fe e0f0      	LDI  R31,HIGH(10)
0008ff 940e 11f9 	CALL __DIVW21
000901 940e 11a5 	CALL __CWD1
000903 940e 126a 	CALL __PUTPARD1
000905 940e 0efe 	CALL SUBOPT_0x25
000907 01df      	MOVW R26,R30
000908 e0ea      	LDI  R30,LOW(10)
000909 e0f0      	LDI  R31,HIGH(10)
00090a 940e 122b 	CALL __MODW21
00090c 940e 11a5 	CALL __CWD1
00090e 940e 0f0c 	CALL SUBOPT_0x27
                 ;            LcdStringBold(3,3);
000910 e0e3      	LDI  R30,LOW(3)
000911 93ea      	ST   -Y,R30
000912 e0a3      	LDI  R26,LOW(3)
000913 de2c      	RCALL _LcdStringBold
                 ;            checkBatState();
000914 df6b      	RCALL _checkBatState
                 ;            sprintf (lcd_buf, "Voltmeter");
000915 940e 0eaf 	CALL SUBOPT_0x19
                +
000917 e6e3     +LDI R30 , LOW ( 2 * _0x0 + ( 27 ) )
000918 e0f8     +LDI R31 , HIGH ( 2 * _0x0 + ( 27 ) )
                 	__POINTW1FN _0x0,27
000919 940e 0f13 	CALL SUBOPT_0x28
                 ;	        LcdString(3,6);
00091b e0e3      	LDI  R30,LOW(3)
00091c c08f      	RJMP _0xBB
                 ;            break;
                 ;        case 2:
                 _0x98:
00091d 30e2      	CPI  R30,LOW(0x2)
00091e e0a0      	LDI  R26,HIGH(0x2)
00091f 07fa      	CPC  R31,R26
000920 f4f1      	BRNE _0x99
                 ;            sprintf (lcd_buf, "%3i", _speed);
000921 940e 0eaf 	CALL SUBOPT_0x19
                +
000923 e6ed     +LDI R30 , LOW ( 2 * _0x0 + ( 37 ) )
000924 e0f8     +LDI R31 , HIGH ( 2 * _0x0 + ( 37 ) )
                 	__POINTW1FN _0x0,37
000925 93fa      	ST   -Y,R31
000926 93ea      	ST   -Y,R30
000927 91e0 03a4 	LDS  R30,__speed
000929 91f0 03a5 	LDS  R31,__speed+1
00092b 940e 0ec0 	CALL SUBOPT_0x1C
                 ;            LcdStringBold(4,3);
00092d e0e4      	LDI  R30,LOW(4)
00092e 93ea      	ST   -Y,R30
00092f e0a3      	LDI  R26,LOW(3)
000930 940e 0f09 	CALL SUBOPT_0x26
                 ;            sprintf (lcd_buf, "Km/h");
                +
000932 e7e1     +LDI R30 , LOW ( 2 * _0x0 + ( 41 ) )
000933 e0f8     +LDI R31 , HIGH ( 2 * _0x0 + ( 41 ) )
                 	__POINTW1FN _0x0,41
000934 940e 0f13 	CALL SUBOPT_0x28
                 ;            LcdString(6,5);
000936 e0e6      	LDI  R30,LOW(6)
000937 940e 0f1a 	CALL SUBOPT_0x29
                 ;            sprintf (lcd_buf, "Speedo");
                +
000939 e7e6     +LDI R30 , LOW ( 2 * _0x0 + ( 46 ) )
00093a e0f8     +LDI R31 , HIGH ( 2 * _0x0 + ( 46 ) )
                 	__POINTW1FN _0x0,46
00093b 940e 0f13 	CALL SUBOPT_0x28
                 ;	        LcdString(4,6);
00093d e0e4      	LDI  R30,LOW(4)
00093e c06d      	RJMP _0xBB
                 ;            break;
                 ;        case 3:
                 _0x99:
00093f 30e3      	CPI  R30,LOW(0x3)
000940 e0a0      	LDI  R26,HIGH(0x3)
000941 07fa      	CPC  R31,R26
000942 f5a9      	BRNE _0x9A
                 ;            sprintf (lcd_buf, ":");
000943 940e 0eaf 	CALL SUBOPT_0x19
                +
000945 e7ed     +LDI R30 , LOW ( 2 * _0x0 + ( 53 ) )
000946 e0f8     +LDI R31 , HIGH ( 2 * _0x0 + ( 53 ) )
                 	__POINTW1FN _0x0,53
000947 940e 0f13 	CALL SUBOPT_0x28
                 ;            LcdString(5,2);
000949 e0e5      	LDI  R30,LOW(5)
00094a 93ea      	ST   -Y,R30
00094b e0a2      	LDI  R26,LOW(2)
00094c 940e 0ebd 	CALL SUBOPT_0x1B
                 ;            sprintf (lcd_buf, "%i", ds18b20_devices);
00094e 940e 0f1d 	CALL SUBOPT_0x2A
000950 27ff      	CLR  R31
000951 2766      	CLR  R22
000952 2777      	CLR  R23
000953 940e 126a 	CALL __PUTPARD1
000955 e084      	LDI  R24,4
000956 940e 0dcb 	CALL _sprintf
000958 9628      	ADIW R28,8
                 ;            LcdString(8,3);
000959 e0e8      	LDI  R30,LOW(8)
00095a 93ea      	ST   -Y,R30
00095b e0a3      	LDI  R26,LOW(3)
00095c 940e 0ebd 	CALL SUBOPT_0x1B
                 ;            sprintf (lcd_buf, "");
                +
00095e e8e8     +LDI R30 , LOW ( 2 * _0x0 + ( 64 ) )
00095f e0f8     +LDI R31 , HIGH ( 2 * _0x0 + ( 64 ) )
                 	__POINTW1FN _0x0,64
000960 940e 0f13 	CALL SUBOPT_0x28
                 ;            LcdString(5,4);
000962 e0e5      	LDI  R30,LOW(5)
000963 93ea      	ST   -Y,R30
000964 e0a4      	LDI  R26,LOW(4)
000965 940e 0ebd 	CALL SUBOPT_0x1B
                 ;            sprintf (lcd_buf, ":", 3 - ds18b20_devices);
                +
000967 e9e0     +LDI R30 , LOW ( 2 * _0x0 + ( 72 ) )
000968 e0f8     +LDI R31 , HIGH ( 2 * _0x0 + ( 72 ) )
                 	__POINTW1FN _0x0,72
000969 93fa      	ST   -Y,R31
00096a 93ea      	ST   -Y,R30
00096b 91e0 0374 	LDS  R30,_ds18b20_devices
00096d 940e 0f24 	CALL SUBOPT_0x2B
                 ;            LcdString(3,5);
00096f e0e3      	LDI  R30,LOW(3)
000970 940e 0f1a 	CALL SUBOPT_0x29
                 ;            sprintf (lcd_buf, "%i", 3 - ds18b20_devices);
000972 940e 0f1d 	CALL SUBOPT_0x2A
000974 940e 0f24 	CALL SUBOPT_0x2B
                 ;            LcdString(8,6);
000976 e0e8      	LDI  R30,LOW(8)
000977 c034      	RJMP _0xBB
                 ;            break;
                 ;        case 4:
                 _0x9A:
000978 30e4      	CPI  R30,LOW(0x4)
000979 e0a0      	LDI  R26,HIGH(0x4)
00097a 07fa      	CPC  R31,R26
00097b f599      	BRNE _0x96
                 ;            sprintf (lcd_buf, "%i.%i", _tacho/1000, (_tacho%1000)/100);
00097c 940e 0eaf 	CALL SUBOPT_0x19
                +
00097e e9eb     +LDI R30 , LOW ( 2 * _0x0 + ( 83 ) )
00097f e0f8     +LDI R31 , HIGH ( 2 * _0x0 + ( 83 ) )
                 	__POINTW1FN _0x0,83
000980 93fa      	ST   -Y,R31
000981 93ea      	ST   -Y,R30
000982 940e 0f2c 	CALL SUBOPT_0x2C
000984 940e 11e6 	CALL __DIVW21U
000986 2766      	CLR  R22
000987 2777      	CLR  R23
000988 940e 126a 	CALL __PUTPARD1
00098a 940e 0f2c 	CALL SUBOPT_0x2C
00098c 940e 1228 	CALL __MODW21U
00098e 01df      	MOVW R26,R30
00098f e6e4      	LDI  R30,LOW(100)
000990 e0f0      	LDI  R31,HIGH(100)
000991 940e 11e6 	CALL __DIVW21U
000993 2766      	CLR  R22
000994 2777      	CLR  R23
000995 940e 0f0c 	CALL SUBOPT_0x27
                 ;            LcdStringBold(5,3);
000997 e0e5      	LDI  R30,LOW(5)
000998 93ea      	ST   -Y,R30
000999 e0a3      	LDI  R26,LOW(3)
00099a 940e 0f09 	CALL SUBOPT_0x26
                 ;            sprintf (lcd_buf, "rpm/m");
                +
00099c eae1     +LDI R30 , LOW ( 2 * _0x0 + ( 89 ) )
00099d e0f8     +LDI R31 , HIGH ( 2 * _0x0 + ( 89 ) )
                 	__POINTW1FN _0x0,89
00099e 940e 0f13 	CALL SUBOPT_0x28
                 ;            LcdString(5,5);
0009a0 e0e5      	LDI  R30,LOW(5)
0009a1 940e 0f1a 	CALL SUBOPT_0x29
                 ;            sprintf (lcd_buf, "Tacho");
                +
0009a3 eae7     +LDI R30 , LOW ( 2 * _0x0 + ( 95 ) )
0009a4 e0f8     +LDI R31 , HIGH ( 2 * _0x0 + ( 95 ) )
                 	__POINTW1FN _0x0,95
                 _0xBA:
0009a5 93fa      	ST   -Y,R31
0009a6 93ea      	ST   -Y,R30
0009a7 e080      	LDI  R24,0
0009a8 940e 0dcb 	CALL _sprintf
0009aa 9624      	ADIW R28,4
                 ;	        LcdString(5,6);
0009ab e0e5      	LDI  R30,LOW(5)
                 _0xBB:
0009ac 93ea      	ST   -Y,R30
0009ad e0a6      	LDI  R26,LOW(6)
0009ae dd09      	RCALL _LcdString
                 ;            break;
                 ;    }
                 _0x96:
                 ;}
0009af c21a      	RJMP _0x2080004
                 ;
                 ;void setTemplate(unsigned int numTemplate)
                 ;{
                 _setTemplate:
                 ;    _template = numTemplate;
0009b0 940e 0e8f 	CALL SUBOPT_0x13
                 ;	numTemplate -> Y+0
0009b2 93e0 0398 	STS  __template,R30
0009b4 93f0 0399 	STS  __template+1,R31
                 ;    LcdClear();
0009b6 db04      	RCALL _LcdClear
                 ;    LcdImage(pic1);
0009b7 e5a4      	LDI  R26,LOW(_pic1*2)
0009b8 e0b5      	LDI  R27,HIGH(_pic1*2)
0009b9 db5e      	RCALL _LcdImage
                 ;    //template(numTemplate);
                 ;}
0009ba c10d      	RJMP _0x2080005
                 ;
                 ;void warning(void)
                 ;{
                 _warning:
                 ;  iconClear();
0009bb de7d      	RCALL _iconClear
                 ;  if (_engineTemperature >= EngineTemperatureWarning)
0009bc 91a0 036f 	LDS  R26,__engineTemperature
0009be 91b0 0370 	LDS  R27,__engineTemperature+1
0009c0 36a4      	CPI  R26,LOW(0x64)
0009c1 e0e0      	LDI  R30,HIGH(0x64)
0009c2 07be      	CPC  R27,R30
0009c3 f044      	BRLT _0x9C
                 ;  {
                 ;    LcdGotoXYFont(3,1);
0009c4 e0e3      	LDI  R30,LOW(3)
0009c5 940e 0ef5 	CALL SUBOPT_0x23
                 ;    iconView(1,0);
0009c7 e0e1      	LDI  R30,LOW(1)
0009c8 e0f0      	LDI  R31,HIGH(1)
0009c9 940e 0ef0 	CALL SUBOPT_0x22
0009cb de5c      	RCALL _iconView
                 ;  }
                 ;
                 ;  if (_outTemperature <= OutTemperatureWarning)
                 _0x9C:
0009cc e0e3      	LDI  R30,LOW(3)
0009cd e0f0      	LDI  R31,HIGH(3)
0009ce 15ea      	CP   R30,R10
0009cf 05fb      	CPC  R31,R11
0009d0 f044      	BRLT _0x9D
                 ;  {
                 ;    LcdGotoXYFont(9,1);
0009d1 e0e9      	LDI  R30,LOW(9)
0009d2 940e 0ef5 	CALL SUBOPT_0x23
                 ;    iconView(3,0);
0009d4 e0e3      	LDI  R30,LOW(3)
0009d5 e0f0      	LDI  R31,HIGH(3)
0009d6 940e 0ef0 	CALL SUBOPT_0x22
0009d8 de4f      	RCALL _iconView
                 ;  }
                 ;
                 ;  if (_volt <= MinBatteryCurrent || _volt >= MaxBatteryCurrent)
                 _0x9D:
0009d9 940e 0f33 	CALL SUBOPT_0x2D
                +
0009db e0e0     +LDI R30 , LOW ( 0x42C80000 )
0009dc e0f0     +LDI R31 , HIGH ( 0x42C80000 )
0009dd ec68     +LDI R22 , BYTE3 ( 0x42C80000 )
0009de e472     +LDI R23 , BYTE4 ( 0x42C80000 )
                 	__GETD1N 0x42C80000
0009df 940e 116d 	CALL __CMPF12
0009e1 f009      	BREQ PC+2
0009e2 f410      	BRCC PC+3
0009e3 940c 09ee 	JMP  _0x9F
0009e5 940e 0f33 	CALL SUBOPT_0x2D
                +
0009e7 e0e0     +LDI R30 , LOW ( 0x43140000 )
0009e8 e0f0     +LDI R31 , HIGH ( 0x43140000 )
0009e9 e164     +LDI R22 , BYTE3 ( 0x43140000 )
0009ea e473     +LDI R23 , BYTE4 ( 0x43140000 )
                 	__GETD1N 0x43140000
0009eb 940e 116d 	CALL __CMPF12
0009ed f040      	BRLO _0x9E
                 _0x9F:
                 ;  {
                 ;    LcdGotoXYFont(6,1);
0009ee e0e6      	LDI  R30,LOW(6)
0009ef 940e 0ef5 	CALL SUBOPT_0x23
                 ;    iconView(2,0);
0009f1 e0e2      	LDI  R30,LOW(2)
0009f2 e0f0      	LDI  R31,HIGH(2)
0009f3 940e 0ef0 	CALL SUBOPT_0x22
0009f5 de32      	RCALL _iconView
                 ;  }
                 ;
                 ;
                 ;}
                 _0x9E:
0009f6 9508      	RET
                 ;
                 ;void update(void)
                 ;{
                 _update:
                 ;    baseTemplate(43,_engineTemperature);
0009f7 e2eb      	LDI  R30,LOW(43)
0009f8 e0f0      	LDI  R31,HIGH(43)
0009f9 93fa      	ST   -Y,R31
0009fa 93ea      	ST   -Y,R30
0009fb 91a0 036f 	LDS  R26,__engineTemperature
0009fd 91b0 0370 	LDS  R27,__engineTemperature+1
0009ff dd61      	RCALL _baseTemplate
                 ;    template(_template);
000a00 91a0 0398 	LDS  R26,__template
000a02 91b0 0399 	LDS  R27,__template+1
000a04 deb1      	RCALL _template
                 ;    warning();
000a05 dfb5      	RCALL _warning
                 ;    LcdUpdate();
000a06 daa4      	RCALL _LcdUpdate
                 ;}
000a07 9508      	RET
                 ;
                 ;void nextTemplate(void)
                 ;{
                 _nextTemplate:
                 ;    setTemplate(_arrTemplate[_tempCounter]);
000a08 91e0 03a0 	LDS  R30,__tempCounter
000a0a 91f0 03a1 	LDS  R31,__tempCounter+1
000a0c e9a0      	LDI  R26,LOW(__arrTemplate)
000a0d e0b3      	LDI  R27,HIGH(__arrTemplate)
000a0e 0fee      	LSL  R30
000a0f 1fff      	ROL  R31
000a10 0fae      	ADD  R26,R30
000a11 1fbf      	ADC  R27,R31
000a12 940e 125a 	CALL __GETW1P
000a14 01df      	MOVW R26,R30
000a15 df9a      	RCALL _setTemplate
                 ;    _tempCounter++;
000a16 eaa0      	LDI  R26,LOW(__tempCounter)
000a17 e0b3      	LDI  R27,HIGH(__tempCounter)
000a18 940e 0f3c 	CALL SUBOPT_0x2E
                 ;    if (_tempCounter > _arrsize-1) _tempCounter = 0;
000a1a 91e0 03a2 	LDS  R30,__arrsize
000a1c 91f0 03a3 	LDS  R31,__arrsize+1
000a1e 9731      	SBIW R30,1
000a1f 91a0 03a0 	LDS  R26,__tempCounter
000a21 91b0 03a1 	LDS  R27,__tempCounter+1
000a23 17ea      	CP   R30,R26
000a24 07fb      	CPC  R31,R27
000a25 f428      	BRSH _0xA1
000a26 e0e0      	LDI  R30,LOW(0)
000a27 93e0 03a0 	STS  __tempCounter,R30
000a29 93e0 03a1 	STS  __tempCounter+1,R30
                 ;}
                 _0xA1:
000a2b 9508      	RET
                 ;
                 ;unsigned int getPulses (unsigned int *overflow, unsigned int *oldValue)
                 ;{
                 _getPulses:
                 ;    unsigned int pulses, timerValue;
                 ;    unsigned int tH_buff, tL_buff;
                 ;
                 ;
                 ;
                 ;    #asm("cli")
000a2c 93ba      	ST   -Y,R27
000a2d 93aa      	ST   -Y,R26
000a2e 9722      	SBIW R28,2
000a2f 940e 127a 	CALL __SAVELOCR6
                 ;	*overflow -> Y+10
                 ;	*oldValue -> Y+8
                 ;	pulses -> R16,R17
                 ;	timerValue -> R18,R19
                 ;	tH_buff -> R20,R21
                 ;	tL_buff -> Y+6
000a31 94f8      	cli
                 ;    tL_buff=TCNT1L;
000a32 b5ec      	IN   R30,0x2C
000a33 e0f0      	LDI  R31,0
000a34 83ee      	STD  Y+6,R30
000a35 83ff      	STD  Y+6+1,R31
                 ;    tH_buff=TCNT1H;
000a36 b54d      	IN   R20,45
000a37 2755      	CLR  R21
                 ;    #asm("sei")
000a38 9478      	sei
                 ;    timerValue = (tH_buff*256)+tL_buff;
000a39 2ff4      	MOV  R31,R20
000a3a e0e0      	LDI  R30,LOW(0)
000a3b 81ae      	LDD  R26,Y+6
000a3c 81bf      	LDD  R27,Y+6+1
000a3d 0fea      	ADD  R30,R26
000a3e 1ffb      	ADC  R31,R27
000a3f 019f      	MOVW R18,R30
                 ;
                 ;    if (overflow)
000a40 85ea      	LDD  R30,Y+10
000a41 85fb      	LDD  R31,Y+10+1
000a42 9730      	SBIW R30,0
000a43 f0d9      	BREQ _0xA2
                 ;    {
                 ;        pulses = (65535*(*overflow) - (*oldValue)) + timerValue;
000a44 85aa      	LDD  R26,Y+10
000a45 85bb      	LDD  R27,Y+10+1
000a46 940e 125a 	CALL __GETW1P
000a48 efaf      	LDI  R26,LOW(65535)
000a49 efbf      	LDI  R27,HIGH(65535)
000a4a 940e 11b4 	CALL __MULW12U
000a4c 010f      	MOVW R0,R30
000a4d 85a8      	LDD  R26,Y+8
000a4e 85b9      	LDD  R27,Y+8+1
000a4f 940e 125a 	CALL __GETW1P
000a51 01df      	MOVW R26,R30
000a52 01f0      	MOVW R30,R0
000a53 1bea      	SUB  R30,R26
000a54 0bfb      	SBC  R31,R27
000a55 0fe2      	ADD  R30,R18
000a56 1ff3      	ADC  R31,R19
000a57 018f      	MOVW R16,R30
                 ;        *overflow = 0;
000a58 85aa      	LDD  R26,Y+10
000a59 85bb      	LDD  R27,Y+10+1
000a5a e0e0      	LDI  R30,LOW(0)
000a5b e0f0      	LDI  R31,HIGH(0)
000a5c 93ed      	ST   X+,R30
000a5d 93fc      	ST   X,R31
                 ;    }else{
000a5e c009      	RJMP _0xA3
                 _0xA2:
                 ;        pulses = timerValue - (*oldValue);
000a5f 85a8      	LDD  R26,Y+8
000a60 85b9      	LDD  R27,Y+8+1
000a61 940e 125a 	CALL __GETW1P
000a63 01df      	MOVW R26,R30
000a64 01f9      	MOVW R30,R18
000a65 1bea      	SUB  R30,R26
000a66 0bfb      	SBC  R31,R27
000a67 018f      	MOVW R16,R30
                 ;    }
                 _0xA3:
                 ;    *oldValue = timerValue;
000a68 85a8      	LDD  R26,Y+8
000a69 85b9      	LDD  R27,Y+8+1
000a6a 932d      	ST   X+,R18
000a6b 933c      	ST   X,R19
                 ;    return pulses;
000a6c 01f8      	MOVW R30,R16
000a6d 940e 1281 	CALL __LOADLOCR6
                 _0x2080006:
000a6f 962c      	ADIW R28,12
000a70 9508      	RET
                 ;}
                 ;
                 ;void speedo(unsigned int timerState)
                 ;{
                 _speedo:
                 ;
                 ;    if (timerState && _speed > 0)
000a71 940e 0e8f 	CALL SUBOPT_0x13
                 ;	timerState -> Y+0
000a73 9730      	SBIW R30,0
000a74 f039      	BREQ _0xA5
000a75 91a0 03a4 	LDS  R26,__speed
000a77 91b0 03a5 	LDS  R27,__speed+1
000a79 940e 1276 	CALL __CPW02
000a7b f008      	BRLO _0xA6
                 _0xA5:
000a7c c005      	RJMP _0xA4
                 _0xA6:
                 ;    {
                 ;        _speedTimerOverflow++;
000a7d eaa8      	LDI  R26,LOW(__speedTimerOverflow)
000a7e e0b3      	LDI  R27,HIGH(__speedTimerOverflow)
000a7f 940e 0f3c 	CALL SUBOPT_0x2E
                 ;        return;
000a81 c046      	RJMP _0x2080005
                 ;    }
                 ;
                 ;    _speed = (((125000/getPulses(&_speedTimerOverflow, &_speedoPulsesOldValue))/PulsesAmount)*36)/10;
                 _0xA4:
000a82 eae8      	LDI  R30,LOW(__speedTimerOverflow)
000a83 e0f3      	LDI  R31,HIGH(__speedTimerOverflow)
000a84 93fa      	ST   -Y,R31
000a85 93ea      	ST   -Y,R30
000a86 eaac      	LDI  R26,LOW(__speedoPulsesOldValue)
000a87 e0b3      	LDI  R27,HIGH(__speedoPulsesOldValue)
000a88 940e 0f42 	CALL SUBOPT_0x2F
                +
000a8a e2a4     +LDI R26 , LOW ( 0x24 )
000a8b e0b0     +LDI R27 , HIGH ( 0x24 )
000a8c e080     +LDI R24 , BYTE3 ( 0x24 )
000a8d e090     +LDI R25 , BYTE4 ( 0x24 )
                 	__GETD2N 0x24
000a8e 940e 11e1 	CALL __MULD12
000a90 01df      	MOVW R26,R30
000a91 01cb      	MOVW R24,R22
                +
000a92 e0ea     +LDI R30 , LOW ( 0xA )
000a93 e0f0     +LDI R31 , HIGH ( 0xA )
000a94 e060     +LDI R22 , BYTE3 ( 0xA )
000a95 e070     +LDI R23 , BYTE4 ( 0xA )
                 	__GETD1N 0xA
000a96 940e 1223 	CALL __DIVD21
000a98 93e0 03a4 	STS  __speed,R30
000a9a 93f0 03a5 	STS  __speed+1,R31
                 ;}
000a9c c02b      	RJMP _0x2080005
                 ;
                 ;void tacho (unsigned int timerState)
                 ;{
                 _tacho:
                 ;    if (timerState && _tacho > 0)
000a9d 940e 0e8f 	CALL SUBOPT_0x13
                 ;	timerState -> Y+0
000a9f 9730      	SBIW R30,0
000aa0 f039      	BREQ _0xA8
000aa1 91a0 03a6 	LDS  R26,__tacho
000aa3 91b0 03a7 	LDS  R27,__tacho+1
000aa5 940e 1276 	CALL __CPW02
000aa7 f008      	BRLO _0xA9
                 _0xA8:
000aa8 c005      	RJMP _0xA7
                 _0xA9:
                 ;        {
                 ;            _tachoTimerOverflow++;
000aa9 eaaa      	LDI  R26,LOW(__tachoTimerOverflow)
000aaa e0b3      	LDI  R27,HIGH(__tachoTimerOverflow)
000aab 940e 0f3c 	CALL SUBOPT_0x2E
                 ;            return;
000aad c01a      	RJMP _0x2080005
                 ;        }
                 ;
                 ;    _tacho = ((125000/getPulses(&_tachoTimerOverflow, &_tachoPulsesOldValue))*60)/4;
                 _0xA7:
000aae eaea      	LDI  R30,LOW(__tachoTimerOverflow)
000aaf e0f3      	LDI  R31,HIGH(__tachoTimerOverflow)
000ab0 93fa      	ST   -Y,R31
000ab1 93ea      	ST   -Y,R30
000ab2 eaae      	LDI  R26,LOW(__tachoPulsesOldValue)
000ab3 e0b3      	LDI  R27,HIGH(__tachoPulsesOldValue)
000ab4 940e 0f42 	CALL SUBOPT_0x2F
                +
000ab6 e3ac     +LDI R26 , LOW ( 0x3C )
000ab7 e0b0     +LDI R27 , HIGH ( 0x3C )
000ab8 e080     +LDI R24 , BYTE3 ( 0x3C )
000ab9 e090     +LDI R25 , BYTE4 ( 0x3C )
                 	__GETD2N 0x3C
000aba 940e 11e1 	CALL __MULD12
000abc 01df      	MOVW R26,R30
000abd 01cb      	MOVW R24,R22
                +
000abe e0e4     +LDI R30 , LOW ( 0x4 )
000abf e0f0     +LDI R31 , HIGH ( 0x4 )
000ac0 e060     +LDI R22 , BYTE3 ( 0x4 )
000ac1 e070     +LDI R23 , BYTE4 ( 0x4 )
                 	__GETD1N 0x4
000ac2 940e 1223 	CALL __DIVD21
000ac4 93e0 03a6 	STS  __tacho,R30
000ac6 93f0 03a7 	STS  __tacho+1,R31
                 ;}
                 _0x2080005:
000ac8 9622      	ADIW R28,2
000ac9 9508      	RET
                 ;
                 ;void buttonCtrl (void)
                 ;{
                 _buttonCtrl:
                 ;    if (BtnPort == 0)
000aca 99b6      	SBIC 0x16,6
000acb c008      	RJMP _0xAA
                 ;    {
                 ;        delay_ms(20);
000acc e1a4      	LDI  R26,LOW(20)
000acd 940e 0e2f 	CALL SUBOPT_0x3
                 ;        _btnCounter++;
000acf e9ae      	LDI  R26,LOW(__btnCounter)
000ad0 e0b3      	LDI  R27,HIGH(__btnCounter)
000ad1 940e 0f3c 	CALL SUBOPT_0x2E
                 ;    }else{
000ad3 c00d      	RJMP _0xAB
                 _0xAA:
                 ;        if(_btnCounter>0){
000ad4 91a0 039e 	LDS  R26,__btnCounter
000ad6 91b0 039f 	LDS  R27,__btnCounter+1
000ad8 940e 1276 	CALL __CPW02
000ada f430      	BRSH _0xAC
                 ;            nextTemplate();
000adb df2c      	RCALL _nextTemplate
                 ;            _btnCounter = 0;
000adc e0e0      	LDI  R30,LOW(0)
000add 93e0 039e 	STS  __btnCounter,R30
000adf 93e0 039f 	STS  __btnCounter+1,R30
                 ;        }
                 ;    }
                 _0xAC:
                 _0xAB:
                 ;}
000ae1 9508      	RET
                 ;
                 ;
                 ;#define tempUpdateTime 5// 
                 ;#define timerOverflow 1
                 ;#define timerNormal 0
                 ;
                 ;unsigned int i;
                 ;unsigned int pulsesCounter;
                 ;
                 ;#define ADC_VREF_TYPE 0xC0
                 ;
                 ;// Read the AD conversion result
                 ;unsigned int read_adc(unsigned char adc_input)
                 ; 0000 0030 {
                 _read_adc:
                 ; 0000 0031 ADMUX=adc_input | (ADC_VREF_TYPE & 0xff);
000ae2 93aa      	ST   -Y,R26
                 ;	adc_input -> Y+0
000ae3 81e8      	LD   R30,Y
000ae4 6ce0      	ORI  R30,LOW(0xC0)
000ae5 b9e7      	OUT  0x7,R30
                 ; 0000 0032 // Delay needed for the stabilization of the ADC input voltage
                 ; 0000 0033 delay_us(10);
                +
000ae6 e18b     +LDI R24 , LOW ( 27 )
                +__DELAY_USB_LOOP :
000ae7 958a     +DEC R24
000ae8 f7f1     +BRNE __DELAY_USB_LOOP
                 	__DELAY_USB 27
                 ; 0000 0034 // Start the AD conversion
                 ; 0000 0035 ADCSRA|=0x40;
000ae9 9a36      	SBI  0x6,6
                 ; 0000 0036 // Wait for the AD conversion to complete
                 ; 0000 0037 while ((ADCSRA & 0x10)==0);
                 _0xAD:
000aea 9b34      	SBIS 0x6,4
000aeb cffe      	RJMP _0xAD
                 ; 0000 0038 ADCSRA|=0x10;
000aec 9a34      	SBI  0x6,4
                 ; 0000 0039 return ADCW;
000aed b1e4      	IN   R30,0x4
000aee b1f5      	IN   R31,0x4+1
000aef 9621      	ADIW R28,1
000af0 9508      	RET
                 ; 0000 003A }
                 ;
                 ;// External Interrupt 0 service routine
                 ;interrupt [EXT_INT0] void ext_int0_isr(void)
                 ; 0000 003E {
                 _ext_int0_isr:
000af1 940e 0f4d 	CALL SUBOPT_0x30
                 ; 0000 003F // Place your code here
                 ; 0000 0040 speedo(timerNormal);
000af3 e0b0      	LDI  R27,0
000af4 df7c      	RCALL _speedo
                 ; 0000 0041 }
000af5 c034      	RJMP _0xBC
                 ;
                 ;// External Interrupt 1 service routine
                 ;interrupt [EXT_INT1] void ext_int1_isr(void)
                 ; 0000 0045 {
                 _ext_int1_isr:
000af6 940e 0f4d 	CALL SUBOPT_0x30
                 ; 0000 0046 // Place your code here
                 ; 0000 0047 tacho(timerNormal);
000af8 c02f      	RJMP _0xBD
                 ; 0000 0048 }
                 ;
                 ;// Timer 0 overflow interrupt service routine
                 ;interrupt [TIM0_OVF] void timer0_ovf_isr(void)
                 ; 0000 004C {
                 _timer0_ovf_isr:
000af9 940e 0f5c 	CALL SUBOPT_0x31
                 ; 0000 004D // Place your code here
                 ; 0000 004E pulsesCounter++;
000afb eba2      	LDI  R26,LOW(_pulsesCounter)
000afc e0b3      	LDI  R27,HIGH(_pulsesCounter)
000afd 940e 0f3c 	CALL SUBOPT_0x2E
                 ; 0000 004F if (pulsesCounter == 15) {
000aff 91a0 03b2 	LDS  R26,_pulsesCounter
000b01 91b0 03b3 	LDS  R27,_pulsesCounter+1
000b03 971f      	SBIW R26,15
000b04 f4b9      	BRNE _0xB0
                 ; 0000 0050     pulsesCounter = 0;
000b05 e0e0      	LDI  R30,LOW(0)
000b06 93e0 03b2 	STS  _pulsesCounter,R30
000b08 93e0 03b3 	STS  _pulsesCounter+1,R30
                 ; 0000 0051 
                 ; 0000 0052     update();
000b0a deec      	RCALL _update
                 ; 0000 0053     i++;
000b0b eba0      	LDI  R26,LOW(_i)
000b0c e0b3      	LDI  R27,HIGH(_i)
000b0d 940e 0f3c 	CALL SUBOPT_0x2E
                 ; 0000 0054 
                 ; 0000 0055         if (i >= tempUpdateTime*2)
000b0f 91a0 03b0 	LDS  R26,_i
000b11 91b0 03b1 	LDS  R27,_i+1
000b13 971a      	SBIW R26,10
000b14 f038      	BRLO _0xB1
                 ; 0000 0056         {
                 ; 0000 0057             i = 0;
000b15 e0e0      	LDI  R30,LOW(0)
000b16 93e0 03b0 	STS  _i,R30
000b18 93e0 03b1 	STS  _i+1,R30
                 ; 0000 0058             getTemperature(ds18b20_devices);
000b1a 940e 0f6a 	CALL SUBOPT_0x32
                 ; 0000 0059             readADC(read_adc(0));
                 ; 0000 005A         }
                 ; 0000 005B 
                 ; 0000 005C }
                 _0xB1:
                 ; 0000 005D }
                 _0xB0:
000b1c c00d      	RJMP _0xBC
                 ;
                 ;// Timer1 output compare A interrupt service routine
                 ;interrupt [TIM1_OVF] void timer1_ovf_isr(void)
                 ; 0000 0061 {
                 _timer1_ovf_isr:
000b1d 940e 0f5c 	CALL SUBOPT_0x31
                 ; 0000 0062 // Place your code here
                 ; 0000 0063 PORTC.1 = !PORTC.1;
000b1f 9ba9      	SBIS 0x15,1
000b20 c002      	RJMP _0xB2
000b21 98a9      	CBI  0x15,1
000b22 c001      	RJMP _0xB3
                 _0xB2:
000b23 9aa9      	SBI  0x15,1
                 _0xB3:
                 ; 0000 0064 speedo(timerOverflow);
000b24 940e 0e2c 	CALL SUBOPT_0x2
000b26 df4a      	RCALL _speedo
                 ; 0000 0065 tacho(timerOverflow);
000b27 e0a1      	LDI  R26,LOW(1)
                 _0xBD:
000b28 e0b0      	LDI  R27,0
000b29 df73      	RCALL _tacho
                 ; 0000 0066 }
                 _0xBC:
000b2a 91e9      	LD   R30,Y+
000b2b bfef      	OUT  SREG,R30
000b2c 91f9      	LD   R31,Y+
000b2d 91e9      	LD   R30,Y+
000b2e 91b9      	LD   R27,Y+
000b2f 91a9      	LD   R26,Y+
000b30 9199      	LD   R25,Y+
000b31 9189      	LD   R24,Y+
000b32 9179      	LD   R23,Y+
000b33 9169      	LD   R22,Y+
000b34 90f9      	LD   R15,Y+
000b35 9019      	LD   R1,Y+
000b36 9009      	LD   R0,Y+
000b37 9518      	RETI
                 ;
                 ;// Timer2 overflow interrupt service routine
                 ;interrupt [TIM2_OVF] void timer2_ovf_isr(void)
                 ; 0000 006A {
                 _timer2_ovf_isr:
                 ; 0000 006B // Place your code here
                 ; 0000 006C 
                 ; 0000 006D }
000b38 9518      	RETI
                 ;
                 ;
                 ;void main(void)
                 ; 0000 0071 {
                 _main:
                 ; 0000 0072 // Declare your local variables here
                 ; 0000 0073 
                 ; 0000 0074 // Input/Output Ports initialization
                 ; 0000 0075 // Port A initialization
                 ; 0000 0076 // Func7=In Func6=In Func5=In Func4=In Func3=In Func2=In Func1=In Func0=In
                 ; 0000 0077 // State7=T State6=T State5=T State4=T State3=T State2=T State1=T State0=T
                 ; 0000 0078 PORTA=0x00;
000b39 e0e0      	LDI  R30,LOW(0)
000b3a bbeb      	OUT  0x1B,R30
                 ; 0000 0079 DDRA=0x00;
000b3b bbea      	OUT  0x1A,R30
                 ; 0000 007A 
                 ; 0000 007B // Port B initialization
                 ; 0000 007C // Func7=In Func6=Out Func5=In Func4=In Func3=In Func2=In Func1=In Func0=In
                 ; 0000 007D // State7=T State6=0 State5=T State4=T State3=T State2=T State1=T State0=T
                 ; 0000 007E PORTB=0x00;
000b3c bbe8      	OUT  0x18,R30
                 ; 0000 007F DDRB=0x40;
000b3d e4e0      	LDI  R30,LOW(64)
000b3e bbe7      	OUT  0x17,R30
                 ; 0000 0080 
                 ; 0000 0081 // Port C initialization
                 ; 0000 0082 // Func7=In Func6=In Func5=In Func4=In Func3=In Func2=In Func1=In Func0=In
                 ; 0000 0083 // State7=T State6=T State5=T State4=T State3=T State2=T State1=T State0=T
                 ; 0000 0084 PORTC=0x00;
000b3f e0e0      	LDI  R30,LOW(0)
000b40 bbe5      	OUT  0x15,R30
                 ; 0000 0085 DDRC=0x02;
000b41 e0e2      	LDI  R30,LOW(2)
000b42 bbe4      	OUT  0x14,R30
                 ; 0000 0086 
                 ; 0000 0087 // Port D initialization
                 ; 0000 0088 // Func7=In Func6=In Func5=In Func4=In Func3=In Func2=In Func1=In Func0=In
                 ; 0000 0089 // State7=T State6=T State5=T State4=T State3=T State2=T State1=T State0=T
                 ; 0000 008A PORTD=0x00;
000b43 e0e0      	LDI  R30,LOW(0)
000b44 bbe2      	OUT  0x12,R30
                 ; 0000 008B DDRD=0x00;
000b45 bbe1      	OUT  0x11,R30
                 ; 0000 008C 
                 ; 0000 008D // Timer/Counter 0 initialization
                 ; 0000 008E // Clock source: System Clock
                 ; 0000 008F // Clock value: 7,813 kHz
                 ; 0000 0090 // Mode: Normal top=0xFF
                 ; 0000 0091 // OC0 output: Disconnected
                 ; 0000 0092 TCCR0=0x05;
000b46 e0e5      	LDI  R30,LOW(5)
000b47 bfe3      	OUT  0x33,R30
                 ; 0000 0093 TCNT0=0x00;
000b48 e0e0      	LDI  R30,LOW(0)
000b49 bfe2      	OUT  0x32,R30
                 ; 0000 0094 OCR0=0x00;
000b4a bfec      	OUT  0x3C,R30
                 ; 0000 0095 
                 ; 0000 0096 // Timer/Counter 1 initialization
                 ; 0000 0097 // Clock source: System Clock
                 ; 0000 0098 // Clock value: 7,813 kHz
                 ; 0000 0099 // Mode: Normal top=0xFFFF
                 ; 0000 009A // OC1A output: Discon.
                 ; 0000 009B // OC1B output: Discon.
                 ; 0000 009C // Noise Canceler: Off
                 ; 0000 009D // Input Capture on Falling Edge
                 ; 0000 009E // Timer1 Overflow Interrupt: Off
                 ; 0000 009F // Input Capture Interrupt: Off
                 ; 0000 00A0 // Compare A Match Interrupt: On
                 ; 0000 00A1 // Compare B Match Interrupt: Off
                 ; 0000 00A2 TCCR1A=0x00;
000b4b bdef      	OUT  0x2F,R30
                 ; 0000 00A3 TCCR1B=0x03;
000b4c e0e3      	LDI  R30,LOW(3)
000b4d bdee      	OUT  0x2E,R30
                 ; 0000 00A4 TCNT1H=0x00;
000b4e e0e0      	LDI  R30,LOW(0)
000b4f bded      	OUT  0x2D,R30
                 ; 0000 00A5 TCNT1L=0x00;
000b50 bdec      	OUT  0x2C,R30
                 ; 0000 00A6 ICR1H=0x00;
000b51 bde7      	OUT  0x27,R30
                 ; 0000 00A7 ICR1L=0x00;
000b52 bde6      	OUT  0x26,R30
                 ; 0000 00A8 OCR1AH=0x00;
000b53 bdeb      	OUT  0x2B,R30
                 ; 0000 00A9 OCR1AL=0x00;
000b54 bdea      	OUT  0x2A,R30
                 ; 0000 00AA OCR1BH=0x00;
000b55 bde9      	OUT  0x29,R30
                 ; 0000 00AB OCR1BL=0x00;
000b56 bde8      	OUT  0x28,R30
                 ; 0000 00AC 
                 ; 0000 00AD // Timer/Counter 2 initialization
                 ; 0000 00AE // Clock source: System Clock
                 ; 0000 00AF // Clock value: 125,000 kHz
                 ; 0000 00B0 // Mode: Normal top=0xFF
                 ; 0000 00B1 // OC2 output: Disconnected
                 ; 0000 00B2 ASSR=0x00;
000b57 bde2      	OUT  0x22,R30
                 ; 0000 00B3 TCCR2=0x04;
000b58 e0e4      	LDI  R30,LOW(4)
000b59 bde5      	OUT  0x25,R30
                 ; 0000 00B4 TCNT2=0x00;
000b5a e0e0      	LDI  R30,LOW(0)
000b5b bde4      	OUT  0x24,R30
                 ; 0000 00B5 OCR2=0x00;
000b5c bde3      	OUT  0x23,R30
                 ; 0000 00B6 
                 ; 0000 00B7 // External Interrupt(s) initialization
                 ; 0000 00B8 // INT0: On
                 ; 0000 00B9 // INT0 Mode: Falling Edge
                 ; 0000 00BA // INT1: On
                 ; 0000 00BB // INT1 Mode: Rising Edge
                 ; 0000 00BC // INT2: Off
                 ; 0000 00BD GICR|=0xC0;
000b5d b7eb      	IN   R30,0x3B
000b5e 6ce0      	ORI  R30,LOW(0xC0)
000b5f bfeb      	OUT  0x3B,R30
                 ; 0000 00BE MCUCR=0x0E;
000b60 e0ee      	LDI  R30,LOW(14)
000b61 bfe5      	OUT  0x35,R30
                 ; 0000 00BF MCUCSR=0x00;
000b62 e0e0      	LDI  R30,LOW(0)
000b63 bfe4      	OUT  0x34,R30
                 ; 0000 00C0 GIFR=0xC0;
000b64 ece0      	LDI  R30,LOW(192)
000b65 bfea      	OUT  0x3A,R30
                 ; 0000 00C1 
                 ; 0000 00C2 // Timer(s)/Counter(s) Interrupt(s) initialization
                 ; 0000 00C3 TIMSK=0x45;
000b66 e4e5      	LDI  R30,LOW(69)
000b67 bfe9      	OUT  0x39,R30
                 ; 0000 00C4 
                 ; 0000 00C5 // USART initialization
                 ; 0000 00C6 // USART disabled
                 ; 0000 00C7 UCSRB=0x00;
000b68 e0e0      	LDI  R30,LOW(0)
000b69 b9ea      	OUT  0xA,R30
                 ; 0000 00C8 
                 ; 0000 00C9 // Analog Comparator initialization
                 ; 0000 00CA // Analog Comparator: Off
                 ; 0000 00CB // Analog Comparator Input Capture by Timer/Counter 1: Off
                 ; 0000 00CC ACSR=0x80;
000b6a e8e0      	LDI  R30,LOW(128)
000b6b b9e8      	OUT  0x8,R30
                 ; 0000 00CD SFIOR=0x00;
000b6c e0e0      	LDI  R30,LOW(0)
000b6d bfe0      	OUT  0x30,R30
                 ; 0000 00CE 
                 ; 0000 00CF // ADC initialization
                 ; 0000 00D0 // ADC Clock frequency: 1000,000 kHz
                 ; 0000 00D1 // ADC Voltage Reference: Int., cap. on AREF
                 ; 0000 00D2 // ADC Auto Trigger Source: ADC Stopped
                 ; 0000 00D3 ADMUX=ADC_VREF_TYPE & 0xff;
000b6e ece0      	LDI  R30,LOW(192)
000b6f b9e7      	OUT  0x7,R30
                 ; 0000 00D4 ADCSRA=0x83;
000b70 e8e3      	LDI  R30,LOW(131)
000b71 b9e6      	OUT  0x6,R30
                 ; 0000 00D5 
                 ; 0000 00D6 // SPI initialization
                 ; 0000 00D7 // SPI disabled
                 ; 0000 00D8 SPCR=0x00;
000b72 e0e0      	LDI  R30,LOW(0)
000b73 b9ed      	OUT  0xD,R30
                 ; 0000 00D9 
                 ; 0000 00DA // TWI initialization
                 ; 0000 00DB // TWI disabled
                 ; 0000 00DC TWCR=0x00;
000b74 bfe6      	OUT  0x36,R30
                 ; 0000 00DD 
                 ; 0000 00DE // 1 Wire Bus initialization
                 ; 0000 00DF // 1 Wire Data port: PORTC
                 ; 0000 00E0 // 1 Wire Data bit: 0
                 ; 0000 00E1 // Note: 1 Wire port settings are specified in the
                 ; 0000 00E2 // Project|Configure|C Compiler|Libraries|1 Wire menu.
                 ; 0000 00E3 w1_init();
000b75 940e 0fb6 	CALL _w1_init
                 ; 0000 00E4 //ds18b20_init();
                 ; 0000 00E5 
                 ; 0000 00E6 LcdInit();
000b77 d954      	RCALL _LcdInit
                 ; 0000 00E7 LcdContrast(35);
000b78 e2a3      	LDI  R26,LOW(35)
000b79 d98e      	RCALL _LcdContrast
                 ; 0000 00E8 tempDeviceInit();
000b7a dc5d      	RCALL _tempDeviceInit
                 ; 0000 00E9 getTemperature(ds18b20_devices);
000b7b 940e 0f6a 	CALL SUBOPT_0x32
                 ; 0000 00EA readADC(read_adc(0));
                 ; 0000 00EB 
                 ; 0000 00EC setTemplate(4);
000b7d e0a4      	LDI  R26,LOW(4)
000b7e e0b0      	LDI  R27,0
000b7f de30      	RCALL _setTemplate
                 ; 0000 00ED 
                 ; 0000 00EE // Global enable interrupts
                 ; 0000 00EF #asm("sei")
000b80 9478      	sei
                 ; 0000 00F0 
                 ; 0000 00F1 while (1)
                 _0xB4:
                 ; 0000 00F2       {
                 ; 0000 00F3       // Place your code here
                 ; 0000 00F4          buttonCtrl();
000b81 df48      	RCALL _buttonCtrl
                 ; 0000 00F5       }
000b82 cffe      	RJMP _0xB4
                 ; 0000 00F6 }
                 _0xB7:
000b83 cfff      	RJMP _0xB7
                 
                 	.CSEG
                 _ds18b20_select:
000b84 93ba      	ST   -Y,R27
000b85 93aa      	ST   -Y,R26
000b86 931a      	ST   -Y,R17
000b87 940e 0fb6 	CALL _w1_init
000b89 30e0      	CPI  R30,0
000b8a f411      	BRNE _0x2000003
000b8b e0e0      	LDI  R30,LOW(0)
000b8c c088      	RJMP _0x2080003
                 _0x2000003:
000b8d 81e9      	LDD  R30,Y+1
000b8e 81fa      	LDD  R31,Y+1+1
000b8f 9730      	SBIW R30,0
000b90 f081      	BREQ _0x2000004
000b91 e5a5      	LDI  R26,LOW(85)
000b92 940e 0ffc 	CALL _w1_write
000b94 e010      	LDI  R17,LOW(0)
                 _0x2000006:
000b95 81a9      	LDD  R26,Y+1
000b96 81ba      	LDD  R27,Y+1+1
000b97 91ed      	LD   R30,X+
000b98 83a9      	STD  Y+1,R26
000b99 83ba      	STD  Y+1+1,R27
000b9a 2fae      	MOV  R26,R30
000b9b 940e 0ffc 	CALL _w1_write
000b9d 5f1f      	SUBI R17,-LOW(1)
000b9e 3018      	CPI  R17,8
000b9f f3a8      	BRLO _0x2000006
000ba0 c003      	RJMP _0x2000008
                 _0x2000004:
000ba1 ecac      	LDI  R26,LOW(204)
000ba2 940e 0ffc 	CALL _w1_write
                 _0x2000008:
000ba4 e0e1      	LDI  R30,LOW(1)
000ba5 c06f      	RJMP _0x2080003
                 _ds18b20_read_spd:
000ba6 940e 0ea7 	CALL SUBOPT_0x17
000ba8 81ac      	LDD  R26,Y+4
000ba9 81bd      	LDD  R27,Y+4+1
000baa dfd9      	RCALL _ds18b20_select
000bab 30e0      	CPI  R30,0
000bac f411      	BRNE _0x2000009
000bad e0e0      	LDI  R30,LOW(0)
000bae c01b      	RJMP _0x2080004
                 _0x2000009:
000baf ebae      	LDI  R26,LOW(190)
000bb0 940e 0ffc 	CALL _w1_write
000bb2 e010      	LDI  R17,LOW(0)
                +
000bb3 e620     +LDI R18 , LOW ( ___ds18b20_scratch_pad )
000bb4 e031     +LDI R19 , HIGH ( ___ds18b20_scratch_pad )
                 	__POINTWRM 18,19,___ds18b20_scratch_pad
                 _0x200000B:
000bb5 933f      	PUSH R19
000bb6 932f      	PUSH R18
                +
000bb7 5f2f     +SUBI R18 , LOW ( - 1 )
000bb8 4f3f     +SBCI R19 , HIGH ( - 1 )
                 	__ADDWRN 18,19,1
000bb9 940e 0ff7 	CALL _w1_read
000bbb 91af      	POP  R26
000bbc 91bf      	POP  R27
000bbd 93ec      	ST   X,R30
000bbe 5f1f      	SUBI R17,-LOW(1)
000bbf 3019      	CPI  R17,9
000bc0 f3a0      	BRLO _0x200000B
000bc1 e6e0      	LDI  R30,LOW(___ds18b20_scratch_pad)
000bc2 e0f1      	LDI  R31,HIGH(___ds18b20_scratch_pad)
000bc3 93fa      	ST   -Y,R31
000bc4 93ea      	ST   -Y,R30
000bc5 e0a9      	LDI  R26,LOW(9)
000bc6 940e 1075 	CALL _w1_dow_crc8
000bc8 940e 11af 	CALL __LNEGB1
                 _0x2080004:
000bca 940e 1283 	CALL __LOADLOCR4
000bcc 9626      	ADIW R28,6
000bcd 9508      	RET
                 _ds18b20_temperature:
000bce 93ba      	ST   -Y,R27
000bcf 93aa      	ST   -Y,R26
000bd0 931a      	ST   -Y,R17
000bd1 81a9      	LDD  R26,Y+1
000bd2 81ba      	LDD  R27,Y+1+1
000bd3 dfd2      	RCALL _ds18b20_read_spd
000bd4 30e0      	CPI  R30,0
000bd5 f419      	BRNE _0x200000D
000bd6 940e 0f75 	CALL SUBOPT_0x33
000bd8 c03c      	RJMP _0x2080003
                 _0x200000D:
                +
000bd9 91e0 0164+LDS R30 , ___ds18b20_scratch_pad + ( 4 )
                 	__GETB1MN ___ds18b20_scratch_pad,4
000bdb 95e2      	SWAP R30
000bdc 70ef      	ANDI R30,0xF
000bdd 95e6      	LSR  R30
000bde 70e3      	ANDI R30,LOW(0x3)
000bdf 2f1e      	MOV  R17,R30
000be0 81a9      	LDD  R26,Y+1
000be1 81ba      	LDD  R27,Y+1+1
000be2 dfa1      	RCALL _ds18b20_select
000be3 30e0      	CPI  R30,0
000be4 f419      	BRNE _0x200000E
000be5 940e 0f75 	CALL SUBOPT_0x33
000be7 c02d      	RJMP _0x2080003
                 _0x200000E:
000be8 e4a4      	LDI  R26,LOW(68)
000be9 940e 0ffc 	CALL _w1_write
000beb 2fe1      	MOV  R30,R17
000bec e1a2      	LDI  R26,LOW(_conv_delay_G100*2)
000bed e0b8      	LDI  R27,HIGH(_conv_delay_G100*2)
000bee 940e 0f7a 	CALL SUBOPT_0x34
000bf0 940e 1262 	CALL __GETW2PF
000bf2 940e 0fac 	CALL _delay_ms
000bf4 81a9      	LDD  R26,Y+1
000bf5 81ba      	LDD  R27,Y+1+1
000bf6 dfaf      	RCALL _ds18b20_read_spd
000bf7 30e0      	CPI  R30,0
000bf8 f419      	BRNE _0x200000F
000bf9 940e 0f75 	CALL SUBOPT_0x33
000bfb c019      	RJMP _0x2080003
                 _0x200000F:
000bfc 940e 0fb6 	CALL _w1_init
000bfe 2fe1      	MOV  R30,R17
000bff e1aa      	LDI  R26,LOW(_bit_mask_G100*2)
000c00 e0b8      	LDI  R27,HIGH(_bit_mask_G100*2)
000c01 940e 0f7a 	CALL SUBOPT_0x34
000c03 940e 125e 	CALL __GETW1PF
000c05 91a0 0160 	LDS  R26,___ds18b20_scratch_pad
000c07 91b0 0161 	LDS  R27,___ds18b20_scratch_pad+1
000c09 23ea      	AND  R30,R26
000c0a 23fb      	AND  R31,R27
000c0b 940e 11a5 	CALL __CWD1
000c0d 940e 10f1 	CALL __CDF1
                +
000c0f e0a0     +LDI R26 , LOW ( 0x3D800000 )
000c10 e0b0     +LDI R27 , HIGH ( 0x3D800000 )
000c11 e880     +LDI R24 , BYTE3 ( 0x3D800000 )
000c12 e39d     +LDI R25 , BYTE4 ( 0x3D800000 )
                 	__GETD2N 0x3D800000
000c13 940e 111f 	CALL __MULF12
                 _0x2080003:
000c15 8118      	LDD  R17,Y+0
000c16 9623      	ADIW R28,3
000c17 9508      	RET
                 _ds18b20_init:
000c18 93aa      	ST   -Y,R26
000c19 81ab      	LDD  R26,Y+3
000c1a 81bc      	LDD  R27,Y+3+1
000c1b df68      	RCALL _ds18b20_select
000c1c 30e0      	CPI  R30,0
000c1d f411      	BRNE _0x2000010
000c1e e0e0      	LDI  R30,LOW(0)
000c1f c072      	RJMP _0x2080002
                 _0x2000010:
000c20 81e8      	LD   R30,Y
000c21 95e2      	SWAP R30
000c22 7fe0      	ANDI R30,0xF0
000c23 0fee      	LSL  R30
000c24 61ef      	ORI  R30,LOW(0x1F)
000c25 83e8      	ST   Y,R30
000c26 e4ae      	LDI  R26,LOW(78)
000c27 940e 0ffc 	CALL _w1_write
000c29 81a9      	LDD  R26,Y+1
000c2a 940e 0ffc 	CALL _w1_write
000c2c 81aa      	LDD  R26,Y+2
000c2d 940e 0ffc 	CALL _w1_write
000c2f 81a8      	LD   R26,Y
000c30 940e 0ffc 	CALL _w1_write
000c32 81ab      	LDD  R26,Y+3
000c33 81bc      	LDD  R27,Y+3+1
000c34 df71      	RCALL _ds18b20_read_spd
000c35 30e0      	CPI  R30,0
000c36 f411      	BRNE _0x2000011
000c37 e0e0      	LDI  R30,LOW(0)
000c38 c059      	RJMP _0x2080002
                 _0x2000011:
                +
000c39 91a0 0163+LDS R26 , ___ds18b20_scratch_pad + ( 3 )
                 	__GETB2MN ___ds18b20_scratch_pad,3
000c3b 81ea      	LDD  R30,Y+2
000c3c 17ea      	CP   R30,R26
000c3d f451      	BRNE _0x2000013
                +
000c3e 91a0 0162+LDS R26 , ___ds18b20_scratch_pad + ( 2 )
                 	__GETB2MN ___ds18b20_scratch_pad,2
000c40 81e9      	LDD  R30,Y+1
000c41 17ea      	CP   R30,R26
000c42 f429      	BRNE _0x2000013
                +
000c43 91a0 0164+LDS R26 , ___ds18b20_scratch_pad + ( 4 )
                 	__GETB2MN ___ds18b20_scratch_pad,4
000c45 81e8      	LD   R30,Y
000c46 17ea      	CP   R30,R26
000c47 f011      	BREQ _0x2000012
                 _0x2000013:
000c48 e0e0      	LDI  R30,LOW(0)
000c49 c048      	RJMP _0x2080002
                 _0x2000012:
000c4a 81ab      	LDD  R26,Y+3
000c4b 81bc      	LDD  R27,Y+3+1
000c4c df37      	RCALL _ds18b20_select
000c4d 30e0      	CPI  R30,0
000c4e f411      	BRNE _0x2000015
000c4f e0e0      	LDI  R30,LOW(0)
000c50 c041      	RJMP _0x2080002
                 _0x2000015:
000c51 e4a8      	LDI  R26,LOW(72)
000c52 940e 0ffc 	CALL _w1_write
000c54 e0af      	LDI  R26,LOW(15)
000c55 940e 0e2f 	CALL SUBOPT_0x3
000c57 940e 0fb6 	CALL _w1_init
000c59 c038      	RJMP _0x2080002
                 	#ifndef __SLEEP_DEFINED__
                 	#endif
                 
                 	.CSEG
                 _put_buff_G101:
000c5a 93ba      	ST   -Y,R27
000c5b 93aa      	ST   -Y,R26
000c5c 931a      	ST   -Y,R17
000c5d 930a      	ST   -Y,R16
000c5e 81aa      	LDD  R26,Y+2
000c5f 81bb      	LDD  R27,Y+2+1
000c60 9612      	ADIW R26,2
000c61 940e 125a 	CALL __GETW1P
000c63 9730      	SBIW R30,0
000c64 f129      	BREQ _0x2020010
000c65 81aa      	LDD  R26,Y+2
000c66 81bb      	LDD  R27,Y+2+1
000c67 9614      	ADIW R26,4
000c68 940e 125a 	CALL __GETW1P
000c6a 018f      	MOVW R16,R30
000c6b 9730      	SBIW R30,0
000c6c f061      	BREQ _0x2020012
                +
000c6d 3002     +CPI R16 , LOW ( 2 )
000c6e e0e0     +LDI R30 , HIGH ( 2 )
000c6f 071e     +CPC R17 , R30
                 	__CPWRN 16,17,2
000c70 f0c0      	BRLO _0x2020013
000c71 01f8      	MOVW R30,R16
000c72 9731      	SBIW R30,1
000c73 018f      	MOVW R16,R30
                +
000c74 81aa     +LDD R26 , Y + 2
000c75 81bb     +LDD R27 , Y + 2 + 1
000c76 9614     +ADIW R26 , 4
000c77 93ed     +ST X + , R30
000c78 93fc     +ST X , R31
                 	__PUTW1SNS 2,4
                 _0x2020012:
000c79 81aa      	LDD  R26,Y+2
000c7a 81bb      	LDD  R27,Y+2+1
000c7b 9612      	ADIW R26,2
000c7c 940e 0f3c 	CALL SUBOPT_0x2E
000c7e 9731      	SBIW R30,1
000c7f 81ac      	LDD  R26,Y+4
000c80 83a0      	STD  Z+0,R26
000c81 81aa      	LDD  R26,Y+2
000c82 81bb      	LDD  R27,Y+2+1
000c83 940e 125a 	CALL __GETW1P
000c85 23ff      	TST  R31
000c86 f012      	BRMI _0x2020014
000c87 940e 0f3c 	CALL SUBOPT_0x2E
                 _0x2020014:
                 _0x2020013:
000c89 c006      	RJMP _0x2020015
                 _0x2020010:
000c8a 81aa      	LDD  R26,Y+2
000c8b 81bb      	LDD  R27,Y+2+1
000c8c efef      	LDI  R30,LOW(65535)
000c8d efff      	LDI  R31,HIGH(65535)
000c8e 93ed      	ST   X+,R30
000c8f 93fc      	ST   X,R31
                 _0x2020015:
000c90 8119      	LDD  R17,Y+1
000c91 8108      	LDD  R16,Y+0
                 _0x2080002:
000c92 9625      	ADIW R28,5
000c93 9508      	RET
                 __print_G101:
000c94 93ba      	ST   -Y,R27
000c95 93aa      	ST   -Y,R26
000c96 9726      	SBIW R28,6
000c97 940e 127a 	CALL __SAVELOCR6
000c99 e010      	LDI  R17,0
000c9a 85ac      	LDD  R26,Y+12
000c9b 85bd      	LDD  R27,Y+12+1
000c9c e0e0      	LDI  R30,LOW(0)
000c9d e0f0      	LDI  R31,HIGH(0)
000c9e 93ed      	ST   X+,R30
000c9f 93fc      	ST   X,R31
                 _0x2020016:
000ca0 89ea      	LDD  R30,Y+18
000ca1 89fb      	LDD  R31,Y+18+1
000ca2 9631      	ADIW R30,1
000ca3 8bea      	STD  Y+18,R30
000ca4 8bfb      	STD  Y+18+1,R31
000ca5 9731      	SBIW R30,1
000ca6 91e4      	LPM  R30,Z
000ca7 2f2e      	MOV  R18,R30
000ca8 30e0      	CPI  R30,0
000ca9 f411      	BRNE PC+3
000caa 940c 0dc3 	JMP _0x2020018
000cac 2fe1      	MOV  R30,R17
000cad 30e0      	CPI  R30,0
000cae f439      	BRNE _0x202001C
000caf 3225      	CPI  R18,37
000cb0 f411      	BRNE _0x202001D
000cb1 e011      	LDI  R17,LOW(1)
000cb2 c002      	RJMP _0x202001E
                 _0x202001D:
000cb3 940e 0f80 	CALL SUBOPT_0x35
                 _0x202001E:
000cb5 c10c      	RJMP _0x202001B
                 _0x202001C:
000cb6 30e1      	CPI  R30,LOW(0x1)
000cb7 f4a9      	BRNE _0x202001F
000cb8 3225      	CPI  R18,37
000cb9 f419      	BRNE _0x2020020
000cba 940e 0f80 	CALL SUBOPT_0x35
000cbc c104      	RJMP _0x20200C9
                 _0x2020020:
000cbd e012      	LDI  R17,LOW(2)
000cbe e040      	LDI  R20,LOW(0)
000cbf e000      	LDI  R16,LOW(0)
000cc0 322d      	CPI  R18,45
000cc1 f411      	BRNE _0x2020021
000cc2 e001      	LDI  R16,LOW(1)
000cc3 c0fe      	RJMP _0x202001B
                 _0x2020021:
000cc4 322b      	CPI  R18,43
000cc5 f411      	BRNE _0x2020022
000cc6 e24b      	LDI  R20,LOW(43)
000cc7 c0fa      	RJMP _0x202001B
                 _0x2020022:
000cc8 3220      	CPI  R18,32
000cc9 f411      	BRNE _0x2020023
000cca e240      	LDI  R20,LOW(32)
000ccb c0f6      	RJMP _0x202001B
                 _0x2020023:
000ccc c002      	RJMP _0x2020024
                 _0x202001F:
000ccd 30e2      	CPI  R30,LOW(0x2)
000cce f439      	BRNE _0x2020025
                 _0x2020024:
000ccf e050      	LDI  R21,LOW(0)
000cd0 e013      	LDI  R17,LOW(3)
000cd1 3320      	CPI  R18,48
000cd2 f411      	BRNE _0x2020026
000cd3 6800      	ORI  R16,LOW(128)
000cd4 c0ed      	RJMP _0x202001B
                 _0x2020026:
000cd5 c004      	RJMP _0x2020027
                 _0x2020025:
000cd6 30e3      	CPI  R30,LOW(0x3)
000cd7 f011      	BREQ PC+3
000cd8 940c 0dc2 	JMP _0x202001B
                 _0x2020027:
000cda 3320      	CPI  R18,48
000cdb f010      	BRLO _0x202002A
000cdc 332a      	CPI  R18,58
000cdd f008      	BRLO _0x202002B
                 _0x202002A:
000cde c007      	RJMP _0x2020029
                 _0x202002B:
000cdf e0aa      	LDI  R26,LOW(10)
000ce0 9f5a      	MUL  R21,R26
000ce1 2d50      	MOV  R21,R0
000ce2 2fe2      	MOV  R30,R18
000ce3 53e0      	SUBI R30,LOW(48)
000ce4 0f5e      	ADD  R21,R30
000ce5 c0dc      	RJMP _0x202001B
                 _0x2020029:
000ce6 2fe2      	MOV  R30,R18
000ce7 36e3      	CPI  R30,LOW(0x63)
000ce8 f449      	BRNE _0x202002F
000ce9 940e 0f87 	CALL SUBOPT_0x36
000ceb 89e8      	LDD  R30,Y+16
000cec 89f9      	LDD  R31,Y+16+1
000ced 81a4      	LDD  R26,Z+4
000cee 93aa      	ST   -Y,R26
000cef 940e 0f8d 	CALL SUBOPT_0x37
000cf1 c0cf      	RJMP _0x2020030
                 _0x202002F:
000cf2 37e3      	CPI  R30,LOW(0x73)
000cf3 f441      	BRNE _0x2020032
000cf4 940e 0f87 	CALL SUBOPT_0x36
000cf6 940e 0f93 	CALL SUBOPT_0x38
000cf8 940e 0dff 	CALL _strlen
000cfa 2f1e      	MOV  R17,R30
000cfb c00a      	RJMP _0x2020033
                 _0x2020032:
000cfc 37e0      	CPI  R30,LOW(0x70)
000cfd f461      	BRNE _0x2020035
000cfe 940e 0f87 	CALL SUBOPT_0x36
000d00 940e 0f93 	CALL SUBOPT_0x38
000d02 940e 0e0b 	CALL _strlenf
000d04 2f1e      	MOV  R17,R30
000d05 6008      	ORI  R16,LOW(8)
                 _0x2020033:
000d06 6002      	ORI  R16,LOW(2)
000d07 770f      	ANDI R16,LOW(127)
000d08 e030      	LDI  R19,LOW(0)
000d09 c035      	RJMP _0x2020036
                 _0x2020035:
000d0a 36e4      	CPI  R30,LOW(0x64)
000d0b f011      	BREQ _0x2020039
000d0c 36e9      	CPI  R30,LOW(0x69)
000d0d f411      	BRNE _0x202003A
                 _0x2020039:
000d0e 6004      	ORI  R16,LOW(4)
000d0f c002      	RJMP _0x202003B
                 _0x202003A:
000d10 37e5      	CPI  R30,LOW(0x75)
000d11 f431      	BRNE _0x202003C
                 _0x202003B:
000d12 e2e2      	LDI  R30,LOW(_tbl10_G101*2)
000d13 e0f8      	LDI  R31,HIGH(_tbl10_G101*2)
000d14 83ee      	STD  Y+6,R30
000d15 83ff      	STD  Y+6+1,R31
000d16 e015      	LDI  R17,LOW(5)
000d17 c00d      	RJMP _0x202003D
                 _0x202003C:
000d18 35e8      	CPI  R30,LOW(0x58)
000d19 f411      	BRNE _0x202003F
000d1a 6008      	ORI  R16,LOW(8)
000d1b c004      	RJMP _0x2020040
                 _0x202003F:
000d1c 37e8      	CPI  R30,LOW(0x78)
000d1d f011      	BREQ PC+3
000d1e 940c 0dc1 	JMP _0x2020071
                 _0x2020040:
000d20 e2ec      	LDI  R30,LOW(_tbl16_G101*2)
000d21 e0f8      	LDI  R31,HIGH(_tbl16_G101*2)
000d22 83ee      	STD  Y+6,R30
000d23 83ff      	STD  Y+6+1,R31
000d24 e014      	LDI  R17,LOW(4)
                 _0x202003D:
000d25 ff02      	SBRS R16,2
000d26 c014      	RJMP _0x2020042
000d27 940e 0f87 	CALL SUBOPT_0x36
000d29 940e 0f9d 	CALL SUBOPT_0x39
000d2b 85ab      	LDD  R26,Y+11
000d2c 23aa      	TST  R26
000d2d f43a      	BRPL _0x2020043
000d2e 85ea      	LDD  R30,Y+10
000d2f 85fb      	LDD  R31,Y+10+1
000d30 940e 1191 	CALL __ANEGW1
000d32 87ea      	STD  Y+10,R30
000d33 87fb      	STD  Y+10+1,R31
000d34 e24d      	LDI  R20,LOW(45)
                 _0x2020043:
000d35 3040      	CPI  R20,0
000d36 f011      	BREQ _0x2020044
000d37 5f1f      	SUBI R17,-LOW(1)
000d38 c001      	RJMP _0x2020045
                 _0x2020044:
000d39 7f0b      	ANDI R16,LOW(251)
                 _0x2020045:
000d3a c004      	RJMP _0x2020046
                 _0x2020042:
000d3b 940e 0f87 	CALL SUBOPT_0x36
000d3d 940e 0f9d 	CALL SUBOPT_0x39
                 _0x2020046:
                 _0x2020036:
000d3f fd00      	SBRC R16,0
000d40 c011      	RJMP _0x2020047
                 _0x2020048:
000d41 1715      	CP   R17,R21
000d42 f478      	BRSH _0x202004A
000d43 ff07      	SBRS R16,7
000d44 c008      	RJMP _0x202004B
000d45 ff02      	SBRS R16,2
000d46 c004      	RJMP _0x202004C
000d47 7f0b      	ANDI R16,LOW(251)
000d48 2f24      	MOV  R18,R20
000d49 5011      	SUBI R17,LOW(1)
000d4a c001      	RJMP _0x202004D
                 _0x202004C:
000d4b e320      	LDI  R18,LOW(48)
                 _0x202004D:
000d4c c001      	RJMP _0x202004E
                 _0x202004B:
000d4d e220      	LDI  R18,LOW(32)
                 _0x202004E:
000d4e 940e 0f80 	CALL SUBOPT_0x35
000d50 5051      	SUBI R21,LOW(1)
000d51 cfef      	RJMP _0x2020048
                 _0x202004A:
                 _0x2020047:
000d52 2f31      	MOV  R19,R17
000d53 ff01      	SBRS R16,1
000d54 c017      	RJMP _0x202004F
                 _0x2020050:
000d55 3030      	CPI  R19,0
000d56 f0a1      	BREQ _0x2020052
000d57 ff03      	SBRS R16,3
000d58 c006      	RJMP _0x2020053
000d59 81ee      	LDD  R30,Y+6
000d5a 81ff      	LDD  R31,Y+6+1
000d5b 9125      	LPM  R18,Z+
000d5c 83ee      	STD  Y+6,R30
000d5d 83ff      	STD  Y+6+1,R31
000d5e c005      	RJMP _0x2020054
                 _0x2020053:
000d5f 81ae      	LDD  R26,Y+6
000d60 81bf      	LDD  R27,Y+6+1
000d61 912d      	LD   R18,X+
000d62 83ae      	STD  Y+6,R26
000d63 83bf      	STD  Y+6+1,R27
                 _0x2020054:
000d64 940e 0f80 	CALL SUBOPT_0x35
000d66 3050      	CPI  R21,0
000d67 f009      	BREQ _0x2020055
000d68 5051      	SUBI R21,LOW(1)
                 _0x2020055:
000d69 5031      	SUBI R19,LOW(1)
000d6a cfea      	RJMP _0x2020050
                 _0x2020052:
000d6b c04b      	RJMP _0x2020056
                 _0x202004F:
                 _0x2020058:
000d6c e320      	LDI  R18,LOW(48)
000d6d 81ee      	LDD  R30,Y+6
000d6e 81ff      	LDD  R31,Y+6+1
000d6f 940e 125e 	CALL __GETW1PF
000d71 87e8      	STD  Y+8,R30
000d72 87f9      	STD  Y+8+1,R31
000d73 81ee      	LDD  R30,Y+6
000d74 81ff      	LDD  R31,Y+6+1
000d75 9632      	ADIW R30,2
000d76 83ee      	STD  Y+6,R30
000d77 83ff      	STD  Y+6+1,R31
                 _0x202005A:
000d78 85e8      	LDD  R30,Y+8
000d79 85f9      	LDD  R31,Y+8+1
000d7a 85aa      	LDD  R26,Y+10
000d7b 85bb      	LDD  R27,Y+10+1
000d7c 17ae      	CP   R26,R30
000d7d 07bf      	CPC  R27,R31
000d7e f050      	BRLO _0x202005C
000d7f 5f2f      	SUBI R18,-LOW(1)
000d80 85a8      	LDD  R26,Y+8
000d81 85b9      	LDD  R27,Y+8+1
000d82 85ea      	LDD  R30,Y+10
000d83 85fb      	LDD  R31,Y+10+1
000d84 1bea      	SUB  R30,R26
000d85 0bfb      	SBC  R31,R27
000d86 87ea      	STD  Y+10,R30
000d87 87fb      	STD  Y+10+1,R31
000d88 cfef      	RJMP _0x202005A
                 _0x202005C:
000d89 332a      	CPI  R18,58
000d8a f028      	BRLO _0x202005D
000d8b ff03      	SBRS R16,3
000d8c c002      	RJMP _0x202005E
000d8d 5f29      	SUBI R18,-LOW(7)
000d8e c001      	RJMP _0x202005F
                 _0x202005E:
000d8f 5d29      	SUBI R18,-LOW(39)
                 _0x202005F:
                 _0x202005D:
000d90 fd04      	SBRC R16,4
000d91 c01a      	RJMP _0x2020061
000d92 3321      	CPI  R18,49
000d93 f420      	BRSH _0x2020063
000d94 85a8      	LDD  R26,Y+8
000d95 85b9      	LDD  R27,Y+8+1
000d96 9711      	SBIW R26,1
000d97 f409      	BRNE _0x2020062
                 _0x2020063:
000d98 c009      	RJMP _0x20200CA
                 _0x2020062:
000d99 1753      	CP   R21,R19
000d9a f010      	BRLO _0x2020067
000d9b ff00      	SBRS R16,0
000d9c c001      	RJMP _0x2020068
                 _0x2020067:
000d9d c013      	RJMP _0x2020066
                 _0x2020068:
000d9e e220      	LDI  R18,LOW(32)
000d9f ff07      	SBRS R16,7
000da0 c00b      	RJMP _0x2020069
000da1 e320      	LDI  R18,LOW(48)
                 _0x20200CA:
000da2 6100      	ORI  R16,LOW(16)
000da3 ff02      	SBRS R16,2
000da4 c007      	RJMP _0x202006A
000da5 7f0b      	ANDI R16,LOW(251)
000da6 934a      	ST   -Y,R20
000da7 940e 0f8d 	CALL SUBOPT_0x37
000da9 3050      	CPI  R21,0
000daa f009      	BREQ _0x202006B
000dab 5051      	SUBI R21,LOW(1)
                 _0x202006B:
                 _0x202006A:
                 _0x2020069:
                 _0x2020061:
000dac 940e 0f80 	CALL SUBOPT_0x35
000dae 3050      	CPI  R21,0
000daf f009      	BREQ _0x202006C
000db0 5051      	SUBI R21,LOW(1)
                 _0x202006C:
                 _0x2020066:
000db1 5031      	SUBI R19,LOW(1)
000db2 85a8      	LDD  R26,Y+8
000db3 85b9      	LDD  R27,Y+8+1
000db4 9712      	SBIW R26,2
000db5 f008      	BRLO _0x2020059
000db6 cfb5      	RJMP _0x2020058
                 _0x2020059:
                 _0x2020056:
000db7 ff00      	SBRS R16,0
000db8 c008      	RJMP _0x202006D
                 _0x202006E:
000db9 3050      	CPI  R21,0
000dba f031      	BREQ _0x2020070
000dbb 5051      	SUBI R21,LOW(1)
000dbc e2e0      	LDI  R30,LOW(32)
000dbd 93ea      	ST   -Y,R30
000dbe 940e 0f8d 	CALL SUBOPT_0x37
000dc0 cff8      	RJMP _0x202006E
                 _0x2020070:
                 _0x202006D:
                 _0x2020071:
                 _0x2020030:
                 _0x20200C9:
000dc1 e010      	LDI  R17,LOW(0)
                 _0x202001B:
000dc2 cedd      	RJMP _0x2020016
                 _0x2020018:
000dc3 85ac      	LDD  R26,Y+12
000dc4 85bd      	LDD  R27,Y+12+1
000dc5 940e 125a 	CALL __GETW1P
000dc7 940e 1281 	CALL __LOADLOCR6
000dc9 9664      	ADIW R28,20
000dca 9508      	RET
                 _sprintf:
000dcb 92ff      	PUSH R15
000dcc 2ef8      	MOV  R15,R24
000dcd 9726      	SBIW R28,6
000dce 940e 127c 	CALL __SAVELOCR4
000dd0 940e 0fa5 	CALL SUBOPT_0x3A
000dd2 9730      	SBIW R30,0
000dd3 f419      	BRNE _0x2020072
000dd4 efef      	LDI  R30,LOW(65535)
000dd5 efff      	LDI  R31,HIGH(65535)
000dd6 c023      	RJMP _0x2080001
                 _0x2020072:
000dd7 01de      	MOVW R26,R28
000dd8 9616      	ADIW R26,6
000dd9 940e 118d 	CALL __ADDW2R15
000ddb 018d      	MOVW R16,R26
000ddc 940e 0fa5 	CALL SUBOPT_0x3A
000dde 83ee      	STD  Y+6,R30
000ddf 83ff      	STD  Y+6+1,R31
000de0 e0e0      	LDI  R30,LOW(0)
000de1 87e8      	STD  Y+8,R30
000de2 87e9      	STD  Y+8+1,R30
000de3 01de      	MOVW R26,R28
000de4 961a      	ADIW R26,10
000de5 940e 118d 	CALL __ADDW2R15
000de7 940e 125a 	CALL __GETW1P
000de9 93fa      	ST   -Y,R31
000dea 93ea      	ST   -Y,R30
000deb 931a      	ST   -Y,R17
000dec 930a      	ST   -Y,R16
000ded e5ea      	LDI  R30,LOW(_put_buff_G101)
000dee e0fc      	LDI  R31,HIGH(_put_buff_G101)
000def 93fa      	ST   -Y,R31
000df0 93ea      	ST   -Y,R30
000df1 01de      	MOVW R26,R28
000df2 961a      	ADIW R26,10
000df3 dea0      	RCALL __print_G101
000df4 019f      	MOVW R18,R30
000df5 81ae      	LDD  R26,Y+6
000df6 81bf      	LDD  R27,Y+6+1
000df7 e0e0      	LDI  R30,LOW(0)
000df8 93ec      	ST   X,R30
000df9 01f9      	MOVW R30,R18
                 _0x2080001:
000dfa 940e 1283 	CALL __LOADLOCR4
000dfc 962a      	ADIW R28,10
000dfd 90ff      	POP  R15
000dfe 9508      	RET
                 
                 	.CSEG
                 
                 	.CSEG
                 _strlen:
000dff 93ba      	ST   -Y,R27
000e00 93aa      	ST   -Y,R26
000e01 91a9          ld   r26,y+
000e02 91b9          ld   r27,y+
000e03 27ee          clr  r30
000e04 27ff          clr  r31
                 strlen0:
000e05 916d          ld   r22,x+
000e06 2366          tst  r22
000e07 f011          breq strlen1
000e08 9631          adiw r30,1
000e09 cffb          rjmp strlen0
                 strlen1:
000e0a 9508          ret
                 _strlenf:
000e0b 93ba      	ST   -Y,R27
000e0c 93aa      	ST   -Y,R26
000e0d 27aa          clr  r26
000e0e 27bb          clr  r27
000e0f 91e9          ld   r30,y+
000e10 91f9          ld   r31,y+
                 strlenf0:
000e11 9005      	lpm  r0,z+
000e12 2000          tst  r0
000e13 f011          breq strlenf1
000e14 9611          adiw r26,1
000e15 cffb          rjmp strlenf0
                 strlenf1:
000e16 01fd          movw r30,r26
000e17 9508          ret
                 
                 	.DSEG
                 ___ds18b20_scratch_pad:
000160           	.BYTE 0x9
                 _lcd_buf:
000169           	.BYTE 0xE
                 _LcdCache:
000177           	.BYTE 0x1F8
                 __engineTemperature:
00036f           	.BYTE 0x2
                 _outTempDevice:
000371           	.BYTE 0x1
                 _internalTempDevice:
000372           	.BYTE 0x1
                 _engineTempDevice:
000373           	.BYTE 0x1
                 _ds18b20_devices:
000374           	.BYTE 0x1
                 _ds18b20_rom_codes:
000375           	.BYTE 0x1B
                 __arrTemplate:
000390           	.BYTE 0x8
                 __template:
000398           	.BYTE 0x2
                 __volt:
00039a           	.BYTE 0x4
                 __btnCounter:
00039e           	.BYTE 0x2
                 __tempCounter:
0003a0           	.BYTE 0x2
                 __arrsize:
0003a2           	.BYTE 0x2
                 __speed:
0003a4           	.BYTE 0x2
                 __tacho:
0003a6           	.BYTE 0x2
                 __speedTimerOverflow:
0003a8           	.BYTE 0x2
                 __tachoTimerOverflow:
0003aa           	.BYTE 0x2
                 __speedoPulsesOldValue:
0003ac           	.BYTE 0x2
                 __tachoPulsesOldValue:
0003ae           	.BYTE 0x2
                 _i:
0003b0           	.BYTE 0x2
                 _pulsesCounter:
0003b2           	.BYTE 0x2
                 
                 	.CSEG
                 ;OPTIMIZER ADDED SUBROUTINE, CALLED 2 TIMES, CODE SIZE REDUCTION:9 WORDS
                 SUBOPT_0x0:
000e18 931a      	ST   -Y,R17
000e19 930a      	ST   -Y,R16
000e1a e8e0      	LDI  R30,LOW(128)
000e1b 93ea      	ST   -Y,R30
000e1c e0a0      	LDI  R26,LOW(0)
000e1d 940e 049a 	CALL _LcdSend
000e1f e4e0      	LDI  R30,LOW(64)
000e20 93ea      	ST   -Y,R30
000e21 e0a0      	LDI  R26,LOW(0)
000e22 940e 049a 	CALL _LcdSend
                +
000e24 e000     +LDI R16 , LOW ( 0 )
000e25 e010     +LDI R17 , HIGH ( 0 )
                 	__GETWRN 16,17,0
000e26 9508      	RET
                 
                 ;OPTIMIZER ADDED SUBROUTINE, CALLED 3 TIMES, CODE SIZE REDUCTION:1 WORDS
                 SUBOPT_0x1:
000e27 e7a7      	LDI  R26,LOW(_LcdCache)
000e28 e0b1      	LDI  R27,HIGH(_LcdCache)
000e29 0fa0      	ADD  R26,R16
000e2a 1fb1      	ADC  R27,R17
000e2b 9508      	RET
                 
                 ;OPTIMIZER ADDED SUBROUTINE, CALLED 5 TIMES, CODE SIZE REDUCTION:5 WORDS
                 SUBOPT_0x2:
000e2c e0a1      	LDI  R26,LOW(1)
000e2d e0b0      	LDI  R27,0
000e2e 9508      	RET
                 
                 ;OPTIMIZER ADDED SUBROUTINE, CALLED 3 TIMES, CODE SIZE REDUCTION:3 WORDS
                 SUBOPT_0x3:
000e2f e0b0      	LDI  R27,0
000e30 940c 0fac 	JMP  _delay_ms
                 
                 ;OPTIMIZER ADDED SUBROUTINE, CALLED 9 TIMES, CODE SIZE REDUCTION:13 WORDS
                 SUBOPT_0x4:
000e32 93ea      	ST   -Y,R30
000e33 e0a0      	LDI  R26,LOW(0)
000e34 940c 049a 	JMP  _LcdSend
                 
                 ;OPTIMIZER ADDED SUBROUTINE, CALLED 2 TIMES, CODE SIZE REDUCTION:3 WORDS
                 SUBOPT_0x5:
000e36 81ad      	LDD  R26,Y+5
000e37 e0b0      	LDI  R27,0
000e38 e0e8      	LDI  R30,LOW(8)
000e39 e0f0      	LDI  R31,HIGH(8)
000e3a 940e 11f9 	CALL __DIVW21
000e3c 9508      	RET
                 
                 ;OPTIMIZER ADDED SUBROUTINE, CALLED 4 TIMES, CODE SIZE REDUCTION:6 WORDS
                 SUBOPT_0x6:
000e3d e0f0      	LDI  R31,0
000e3e 0fea      	ADD  R30,R26
000e3f 1ffb      	ADC  R31,R27
000e40 9508      	RET
                 
                 ;OPTIMIZER ADDED SUBROUTINE, CALLED 3 TIMES, CODE SIZE REDUCTION:1 WORDS
                 SUBOPT_0x7:
000e41 2fe3      	MOV  R30,R19
000e42 e0a1      	LDI  R26,LOW(1)
000e43 940e 119d 	CALL __LSLB12
000e45 9508      	RET
                 
                 ;OPTIMIZER ADDED SUBROUTINE, CALLED 3 TIMES, CODE SIZE REDUCTION:7 WORDS
                 SUBOPT_0x8:
000e46 89e9      	LDD  R30,Y+17
000e47 93ea      	ST   -Y,R30
000e48 89e8      	LDD  R30,Y+16
000e49 93ea      	ST   -Y,R30
000e4a 85ac      	LDD  R26,Y+12
000e4b 940c 0532 	JMP  _LcdPixel
                 
                 ;OPTIMIZER ADDED SUBROUTINE, CALLED 2 TIMES, CODE SIZE REDUCTION:3 WORDS
                 SUBOPT_0x9:
000e4d 85e8      	LDD  R30,Y+8
000e4e 85f9      	LDD  R31,Y+8+1
000e4f 85af      	LDD  R26,Y+15
000e50 89b8      	LDD  R27,Y+15+1
000e51 0fea      	ADD  R30,R26
000e52 1ffb      	ADC  R31,R27
000e53 87ef      	STD  Y+15,R30
000e54 8bf8      	STD  Y+15+1,R31
000e55 9508      	RET
                 
                 ;OPTIMIZER ADDED SUBROUTINE, CALLED 2 TIMES, CODE SIZE REDUCTION:2 WORDS
                 SUBOPT_0xA:
000e56 01fa      	MOVW R30,R20
000e57 89a9      	LDD  R26,Y+17
000e58 89ba      	LDD  R27,Y+17+1
000e59 0fea      	ADD  R30,R26
000e5a 1ffb      	ADC  R31,R27
000e5b 8be9      	STD  Y+17,R30
000e5c 8bfa      	STD  Y+17+1,R31
000e5d 9508      	RET
                 
                 ;OPTIMIZER ADDED SUBROUTINE, CALLED 2 TIMES, CODE SIZE REDUCTION:3 WORDS
                 SUBOPT_0xB:
000e5e 81ae      	LDD  R26,Y+6
000e5f 81bf      	LDD  R27,Y+6+1
000e60 0fea      	ADD  R30,R26
000e61 1ffb      	ADC  R31,R27
000e62 83ee      	STD  Y+6,R30
000e63 83ff      	STD  Y+6+1,R31
000e64 cfe1      	RJMP SUBOPT_0x8
                 
                 ;OPTIMIZER ADDED SUBROUTINE, CALLED 2 TIMES, CODE SIZE REDUCTION:3 WORDS
                 SUBOPT_0xC:
000e65 85eb      	LDD  R30,Y+11
000e66 85fc      	LDD  R31,Y+11+1
000e67 93fa      	ST   -Y,R31
000e68 93ea      	ST   -Y,R30
000e69 2fe3      	MOV  R30,R19
000e6a e0f0      	LDI  R31,0
000e6b 9508      	RET
                 
                 ;OPTIMIZER ADDED SUBROUTINE, CALLED 4 TIMES, CODE SIZE REDUCTION:3 WORDS
                 SUBOPT_0xD:
000e6c 1bae      	SUB  R26,R30
000e6d 0bbf      	SBC  R27,R31
000e6e 93ba      	ST   -Y,R27
000e6f 93aa      	ST   -Y,R26
000e70 9508      	RET
                 
                 ;OPTIMIZER ADDED SUBROUTINE, CALLED 2 TIMES, CODE SIZE REDUCTION:2 WORDS
                 SUBOPT_0xE:
000e71 9611      	ADIW R26,1
000e72 2fe3      	MOV  R30,R19
000e73 e0f0      	LDI  R31,0
000e74 cff7      	RJMP SUBOPT_0xD
                 
                 ;OPTIMIZER ADDED SUBROUTINE, CALLED 5 TIMES, CODE SIZE REDUCTION:13 WORDS
                 SUBOPT_0xF:
000e75 2fe1      	MOV  R30,R17
000e76 e0f0      	LDI  R31,0
000e77 59e7      	SUBI R30,LOW(-_lcd_buf)
000e78 4ffe      	SBCI R31,HIGH(-_lcd_buf)
000e79 9508      	RET
                 
                 ;OPTIMIZER ADDED SUBROUTINE, CALLED 3 TIMES, CODE SIZE REDUCTION:5 WORDS
                 SUBOPT_0x10:
000e7a 2fa1      	MOV  R26,R17
000e7b e0b0      	LDI  R27,0
000e7c 17ae      	CP   R26,R30
000e7d 07bf      	CPC  R27,R31
000e7e 9508      	RET
                 
                 ;OPTIMIZER ADDED SUBROUTINE, CALLED 4 TIMES, CODE SIZE REDUCTION:9 WORDS
                 SUBOPT_0x11:
000e7f 01f4      	MOVW R30,R8
000e80 9631      	ADIW R30,1
000e81 014f      	MOVW R8,R30
000e82 9731      	SBIW R30,1
000e83 58e9      	SUBI R30,LOW(-_LcdCache)
000e84 4ffe      	SBCI R31,HIGH(-_LcdCache)
000e85 9508      	RET
                 
                 ;OPTIMIZER ADDED SUBROUTINE, CALLED 2 TIMES, CODE SIZE REDUCTION:5 WORDS
                 SUBOPT_0x12:
000e86 81ef      	LDD  R30,Y+7
000e87 85f8      	LDD  R31,Y+7+1
000e88 85a9      	LDD  R26,Y+9
000e89 85ba      	LDD  R27,Y+9+1
000e8a 940e 11b4 	CALL __MULW12U
000e8c 01df      	MOVW R26,R30
000e8d 2fe1      	MOV  R30,R17
000e8e cfae      	RJMP SUBOPT_0x6
                 
                 ;OPTIMIZER ADDED SUBROUTINE, CALLED 6 TIMES, CODE SIZE REDUCTION:7 WORDS
                 SUBOPT_0x13:
000e8f 93ba      	ST   -Y,R27
000e90 93aa      	ST   -Y,R26
000e91 81e8      	LD   R30,Y
000e92 81f9      	LDD  R31,Y+1
000e93 9508      	RET
                 
                 ;OPTIMIZER ADDED SUBROUTINE, CALLED 4 TIMES, CODE SIZE REDUCTION:9 WORDS
                 SUBOPT_0x14:
000e94 93fa      	ST   -Y,R31
000e95 93ea      	ST   -Y,R30
000e96 e0e0      	LDI  R30,LOW(0)
000e97 e0f0      	LDI  R31,HIGH(0)
000e98 93fa      	ST   -Y,R31
000e99 93ea      	ST   -Y,R30
000e9a 9508      	RET
                 
                 ;OPTIMIZER ADDED SUBROUTINE, CALLED 2 TIMES, CODE SIZE REDUCTION:1 WORDS
                 SUBOPT_0x15:
000e9b 81ea      	LDD  R30,Y+2
000e9c 93ea      	ST   -Y,R30
000e9d 81aa      	LDD  R26,Y+2
000e9e 940e 0652 	CALL _LcdGotoXYFont
000ea0 e010      	LDI  R17,LOW(0)
000ea1 9508      	RET
                 
                 ;OPTIMIZER ADDED SUBROUTINE, CALLED 2 TIMES, CODE SIZE REDUCTION:1 WORDS
                 SUBOPT_0x16:
000ea2 940e 126f 	CALL __SWAPW12
000ea4 1bea      	SUB  R30,R26
000ea5 0bfb      	SBC  R31,R27
000ea6 cfd3      	RJMP SUBOPT_0x10
                 
                 ;OPTIMIZER ADDED SUBROUTINE, CALLED 3 TIMES, CODE SIZE REDUCTION:1 WORDS
                 SUBOPT_0x17:
000ea7 93ba      	ST   -Y,R27
000ea8 93aa      	ST   -Y,R26
000ea9 940e 127c 	CALL __SAVELOCR4
000eab 9508      	RET
                 
                 ;OPTIMIZER ADDED SUBROUTINE, CALLED 3 TIMES, CODE SIZE REDUCTION:3 WORDS
                 SUBOPT_0x18:
000eac e0b0      	LDI  R27,0
000ead 940c 06db 	JMP  _LcdChrBold
                 
                 ;OPTIMIZER ADDED SUBROUTINE, CALLED 18 TIMES, CODE SIZE REDUCTION:31 WORDS
                 SUBOPT_0x19:
000eaf e6e9      	LDI  R30,LOW(_lcd_buf)
000eb0 e0f1      	LDI  R31,HIGH(_lcd_buf)
000eb1 93fa      	ST   -Y,R31
000eb2 93ea      	ST   -Y,R30
000eb3 9508      	RET
                 
                 ;OPTIMIZER ADDED SUBROUTINE, CALLED 5 TIMES, CODE SIZE REDUCTION:21 WORDS
                 SUBOPT_0x1A:
000eb4 940e 11a5 	CALL __CWD1
000eb6 940e 126a 	CALL __PUTPARD1
000eb8 e084      	LDI  R24,4
000eb9 940e 0dcb 	CALL _sprintf
000ebb 9628      	ADIW R28,8
000ebc 9508      	RET
                 
                 ;OPTIMIZER ADDED SUBROUTINE, CALLED 7 TIMES, CODE SIZE REDUCTION:9 WORDS
                 SUBOPT_0x1B:
000ebd 940e 06b8 	CALL _LcdString
000ebf cfef      	RJMP SUBOPT_0x19
                 
                 ;OPTIMIZER ADDED SUBROUTINE, CALLED 2 TIMES, CODE SIZE REDUCTION:3 WORDS
                 SUBOPT_0x1C:
000ec0 2766      	CLR  R22
000ec1 2777      	CLR  R23
000ec2 940e 126a 	CALL __PUTPARD1
000ec4 e084      	LDI  R24,4
000ec5 940e 0dcb 	CALL _sprintf
000ec7 9628      	ADIW R28,8
000ec8 9508      	RET
                 
                 ;OPTIMIZER ADDED SUBROUTINE, CALLED 2 TIMES, CODE SIZE REDUCTION:3 WORDS
                 SUBOPT_0x1D:
                +
000ec9 e6e4     +LDI R30 , LOW ( 0x64 )
000eca e0f0     +LDI R31 , HIGH ( 0x64 )
000ecb e060     +LDI R22 , BYTE3 ( 0x64 )
000ecc e070     +LDI R23 , BYTE4 ( 0x64 )
                 	__GETD1N 0x64
000ecd 940e 11e1 	CALL __MULD12
000ecf 01df      	MOVW R26,R30
000ed0 01cb      	MOVW R24,R22
000ed1 9508      	RET
                 
                 ;OPTIMIZER ADDED SUBROUTINE, CALLED 2 TIMES, CODE SIZE REDUCTION:1 WORDS
                 SUBOPT_0x1E:
000ed2 93fa      	ST   -Y,R31
000ed3 93ea      	ST   -Y,R30
000ed4 e0ea      	LDI  R30,LOW(10)
000ed5 e0f0      	LDI  R31,HIGH(10)
000ed6 93fa      	ST   -Y,R31
000ed7 93ea      	ST   -Y,R30
000ed8 9508      	RET
                 
                 ;OPTIMIZER ADDED SUBROUTINE, CALLED 4 TIMES, CODE SIZE REDUCTION:3 WORDS
                 SUBOPT_0x1F:
000ed9 e0e4      	LDI  R30,LOW(4)
000eda e0f0      	LDI  R31,HIGH(4)
000edb 93fa      	ST   -Y,R31
000edc 93ea      	ST   -Y,R30
000edd 9508      	RET
                 
                 ;OPTIMIZER ADDED SUBROUTINE, CALLED 2 TIMES, CODE SIZE REDUCTION:5 WORDS
                 SUBOPT_0x20:
000ede e0a9      	LDI  R26,LOW(9)
000edf 9fea      	MUL  R30,R26
000ee0 01f0      	MOVW R30,R0
000ee1 58eb      	SUBI R30,LOW(-_ds18b20_rom_codes)
000ee2 4ffc      	SBCI R31,HIGH(-_ds18b20_rom_codes)
000ee3 01df      	MOVW R26,R30
000ee4 940e 0bce 	CALL _ds18b20_temperature
000ee6 940e 10ba 	CALL __CFD1
000ee8 9508      	RET
                 
                 ;OPTIMIZER ADDED SUBROUTINE, CALLED 4 TIMES, CODE SIZE REDUCTION:9 WORDS
                 SUBOPT_0x21:
000ee9 e1e2      	LDI  R30,LOW(18)
000eea e0f0      	LDI  R31,HIGH(18)
000eeb 93fa      	ST   -Y,R31
000eec 93ea      	ST   -Y,R30
000eed e4ec      	LDI  R30,LOW(_icon*2)
000eee e0f7      	LDI  R31,HIGH(_icon*2)
000eef 9508      	RET
                 
                 ;OPTIMIZER ADDED SUBROUTINE, CALLED 4 TIMES, CODE SIZE REDUCTION:9 WORDS
                 SUBOPT_0x22:
000ef0 93fa      	ST   -Y,R31
000ef1 93ea      	ST   -Y,R30
000ef2 e0a0      	LDI  R26,LOW(0)
000ef3 e0b0      	LDI  R27,0
000ef4 9508      	RET
                 
                 ;OPTIMIZER ADDED SUBROUTINE, CALLED 4 TIMES, CODE SIZE REDUCTION:3 WORDS
                 SUBOPT_0x23:
000ef5 93ea      	ST   -Y,R30
000ef6 e0a1      	LDI  R26,LOW(1)
000ef7 940c 0652 	JMP  _LcdGotoXYFont
                 
                 ;OPTIMIZER ADDED SUBROUTINE, CALLED 2 TIMES, CODE SIZE REDUCTION:3 WORDS
                 SUBOPT_0x24:
000ef9 e0a0      	LDI  R26,LOW(0)
000efa e0b0      	LDI  R27,0
000efb 940e 0679 	CALL _CharPrint
000efd cfdb      	RJMP SUBOPT_0x1F
                 
                 ;OPTIMIZER ADDED SUBROUTINE, CALLED 5 TIMES, CODE SIZE REDUCTION:29 WORDS
                 SUBOPT_0x25:
000efe 91e0 039a 	LDS  R30,__volt
000f00 91f0 039b 	LDS  R31,__volt+1
000f02 9160 039c 	LDS  R22,__volt+2
000f04 9170 039d 	LDS  R23,__volt+3
000f06 940e 10ba 	CALL __CFD1
000f08 9508      	RET
                 
                 ;OPTIMIZER ADDED SUBROUTINE, CALLED 4 TIMES, CODE SIZE REDUCTION:3 WORDS
                 SUBOPT_0x26:
000f09 940e 0740 	CALL _LcdStringBold
000f0b cfa3      	RJMP SUBOPT_0x19
                 
                 ;OPTIMIZER ADDED SUBROUTINE, CALLED 2 TIMES, CODE SIZE REDUCTION:1 WORDS
                 SUBOPT_0x27:
000f0c 940e 126a 	CALL __PUTPARD1
000f0e e088      	LDI  R24,8
000f0f 940e 0dcb 	CALL _sprintf
000f11 962c      	ADIW R28,12
000f12 9508      	RET
                 
                 ;OPTIMIZER ADDED SUBROUTINE, CALLED 6 TIMES, CODE SIZE REDUCTION:17 WORDS
                 SUBOPT_0x28:
000f13 93fa      	ST   -Y,R31
000f14 93ea      	ST   -Y,R30
000f15 e080      	LDI  R24,0
000f16 940e 0dcb 	CALL _sprintf
000f18 9624      	ADIW R28,4
000f19 9508      	RET
                 
                 ;OPTIMIZER ADDED SUBROUTINE, CALLED 3 TIMES, CODE SIZE REDUCTION:1 WORDS
                 SUBOPT_0x29:
000f1a 93ea      	ST   -Y,R30
000f1b e0a5      	LDI  R26,LOW(5)
000f1c cfa0      	RJMP SUBOPT_0x1B
                 
                 ;OPTIMIZER ADDED SUBROUTINE, CALLED 2 TIMES, CODE SIZE REDUCTION:1 WORDS
                 SUBOPT_0x2A:
                +
000f1d e8e5     +LDI R30 , LOW ( 2 * _0x0 + ( 61 ) )
000f1e e0f8     +LDI R31 , HIGH ( 2 * _0x0 + ( 61 ) )
                 	__POINTW1FN _0x0,61
000f1f 93fa      	ST   -Y,R31
000f20 93ea      	ST   -Y,R30
000f21 91e0 0374 	LDS  R30,_ds18b20_devices
000f23 9508      	RET
                 
                 ;OPTIMIZER ADDED SUBROUTINE, CALLED 2 TIMES, CODE SIZE REDUCTION:6 WORDS
                 SUBOPT_0x2B:
000f24 e0f0      	LDI  R31,0
000f25 e0a3      	LDI  R26,LOW(3)
000f26 e0b0      	LDI  R27,HIGH(3)
000f27 940e 126f 	CALL __SWAPW12
000f29 1bea      	SUB  R30,R26
000f2a 0bfb      	SBC  R31,R27
000f2b cf88      	RJMP SUBOPT_0x1A
                 
                 ;OPTIMIZER ADDED SUBROUTINE, CALLED 2 TIMES, CODE SIZE REDUCTION:1 WORDS
                 SUBOPT_0x2C:
000f2c 91a0 03a6 	LDS  R26,__tacho
000f2e 91b0 03a7 	LDS  R27,__tacho+1
000f30 eee8      	LDI  R30,LOW(1000)
000f31 e0f3      	LDI  R31,HIGH(1000)
000f32 9508      	RET
                 
                 ;OPTIMIZER ADDED SUBROUTINE, CALLED 2 TIMES, CODE SIZE REDUCTION:3 WORDS
                 SUBOPT_0x2D:
000f33 91a0 039a 	LDS  R26,__volt
000f35 91b0 039b 	LDS  R27,__volt+1
000f37 9180 039c 	LDS  R24,__volt+2
000f39 9190 039d 	LDS  R25,__volt+3
000f3b 9508      	RET
                 
                 ;OPTIMIZER ADDED SUBROUTINE, CALLED 8 TIMES, CODE SIZE REDUCTION:18 WORDS
                 SUBOPT_0x2E:
000f3c 91ed      	LD   R30,X+
000f3d 91fd      	LD   R31,X+
000f3e 9631      	ADIW R30,1
000f3f 93fe      	ST   -X,R31
000f40 93ee      	ST   -X,R30
000f41 9508      	RET
                 
                 ;OPTIMIZER ADDED SUBROUTINE, CALLED 2 TIMES, CODE SIZE REDUCTION:5 WORDS
                 SUBOPT_0x2F:
000f42 940e 0a2c 	CALL _getPulses
000f44 2766      	CLR  R22
000f45 2777      	CLR  R23
                +
000f46 e4a8     +LDI R26 , LOW ( 0x1E848 )
000f47 eeb8     +LDI R27 , HIGH ( 0x1E848 )
000f48 e081     +LDI R24 , BYTE3 ( 0x1E848 )
000f49 e090     +LDI R25 , BYTE4 ( 0x1E848 )
                 	__GETD2N 0x1E848
000f4a 940e 1223 	CALL __DIVD21
000f4c 9508      	RET
                 
                 ;OPTIMIZER ADDED SUBROUTINE, CALLED 2 TIMES, CODE SIZE REDUCTION:9 WORDS
                 SUBOPT_0x30:
000f4d 920a      	ST   -Y,R0
000f4e 921a      	ST   -Y,R1
000f4f 92fa      	ST   -Y,R15
000f50 936a      	ST   -Y,R22
000f51 937a      	ST   -Y,R23
000f52 938a      	ST   -Y,R24
000f53 939a      	ST   -Y,R25
000f54 93aa      	ST   -Y,R26
000f55 93ba      	ST   -Y,R27
000f56 93ea      	ST   -Y,R30
000f57 93fa      	ST   -Y,R31
000f58 b7ef      	IN   R30,SREG
000f59 93ea      	ST   -Y,R30
000f5a e0a0      	LDI  R26,LOW(0)
000f5b 9508      	RET
                 
                 ;OPTIMIZER ADDED SUBROUTINE, CALLED 2 TIMES, CODE SIZE REDUCTION:8 WORDS
                 SUBOPT_0x31:
000f5c 920a      	ST   -Y,R0
000f5d 921a      	ST   -Y,R1
000f5e 92fa      	ST   -Y,R15
000f5f 936a      	ST   -Y,R22
000f60 937a      	ST   -Y,R23
000f61 938a      	ST   -Y,R24
000f62 939a      	ST   -Y,R25
000f63 93aa      	ST   -Y,R26
000f64 93ba      	ST   -Y,R27
000f65 93ea      	ST   -Y,R30
000f66 93fa      	ST   -Y,R31
000f67 b7ef      	IN   R30,SREG
000f68 93ea      	ST   -Y,R30
000f69 9508      	RET
                 
                 ;OPTIMIZER ADDED SUBROUTINE, CALLED 2 TIMES, CODE SIZE REDUCTION:6 WORDS
                 SUBOPT_0x32:
000f6a 91a0 0374 	LDS  R26,_ds18b20_devices
000f6c 27bb      	CLR  R27
000f6d 940e 07fe 	CALL _getTemperature
000f6f e0a0      	LDI  R26,LOW(0)
000f70 940e 0ae2 	CALL _read_adc
000f72 01df      	MOVW R26,R30
000f73 940c 086b 	JMP  _readADC
                 
                 ;OPTIMIZER ADDED SUBROUTINE, CALLED 3 TIMES, CODE SIZE REDUCTION:1 WORDS
                 SUBOPT_0x33:
                +
000f75 e0e0     +LDI R30 , LOW ( 0xC61C3C00 )
000f76 e3fc     +LDI R31 , HIGH ( 0xC61C3C00 )
000f77 e16c     +LDI R22 , BYTE3 ( 0xC61C3C00 )
000f78 ec76     +LDI R23 , BYTE4 ( 0xC61C3C00 )
                 	__GETD1N 0xC61C3C00
000f79 9508      	RET
                 
                 ;OPTIMIZER ADDED SUBROUTINE, CALLED 2 TIMES, CODE SIZE REDUCTION:2 WORDS
                 SUBOPT_0x34:
000f7a e0f0      	LDI  R31,0
000f7b 0fee      	LSL  R30
000f7c 1fff      	ROL  R31
000f7d 0fea      	ADD  R30,R26
000f7e 1ffb      	ADC  R31,R27
000f7f 9508      	RET
                 
                 ;OPTIMIZER ADDED SUBROUTINE, CALLED 5 TIMES, CODE SIZE REDUCTION:13 WORDS
                 SUBOPT_0x35:
000f80 932a      	ST   -Y,R18
000f81 85ad      	LDD  R26,Y+13
000f82 85be      	LDD  R27,Y+13+1
000f83 85ef      	LDD  R30,Y+15
000f84 89f8      	LDD  R31,Y+15+1
000f85 9509      	ICALL
000f86 9508      	RET
                 
                 ;OPTIMIZER ADDED SUBROUTINE, CALLED 5 TIMES, CODE SIZE REDUCTION:9 WORDS
                 SUBOPT_0x36:
000f87 89e8      	LDD  R30,Y+16
000f88 89f9      	LDD  R31,Y+16+1
000f89 9734      	SBIW R30,4
000f8a 8be8      	STD  Y+16,R30
000f8b 8bf9      	STD  Y+16+1,R31
000f8c 9508      	RET
                 
                 ;OPTIMIZER ADDED SUBROUTINE, CALLED 3 TIMES, CODE SIZE REDUCTION:3 WORDS
                 SUBOPT_0x37:
000f8d 85ad      	LDD  R26,Y+13
000f8e 85be      	LDD  R27,Y+13+1
000f8f 85ef      	LDD  R30,Y+15
000f90 89f8      	LDD  R31,Y+15+1
000f91 9509      	ICALL
000f92 9508      	RET
                 
                 ;OPTIMIZER ADDED SUBROUTINE, CALLED 2 TIMES, CODE SIZE REDUCTION:4 WORDS
                 SUBOPT_0x38:
000f93 89a8      	LDD  R26,Y+16
000f94 89b9      	LDD  R27,Y+16+1
000f95 9614      	ADIW R26,4
000f96 940e 125a 	CALL __GETW1P
000f98 83ee      	STD  Y+6,R30
000f99 83ff      	STD  Y+6+1,R31
000f9a 81ae      	LDD  R26,Y+6
000f9b 81bf      	LDD  R27,Y+6+1
000f9c 9508      	RET
                 
                 ;OPTIMIZER ADDED SUBROUTINE, CALLED 2 TIMES, CODE SIZE REDUCTION:2 WORDS
                 SUBOPT_0x39:
000f9d 89a8      	LDD  R26,Y+16
000f9e 89b9      	LDD  R27,Y+16+1
000f9f 9614      	ADIW R26,4
000fa0 940e 125a 	CALL __GETW1P
000fa2 87ea      	STD  Y+10,R30
000fa3 87fb      	STD  Y+10+1,R31
000fa4 9508      	RET
                 
                 ;OPTIMIZER ADDED SUBROUTINE, CALLED 2 TIMES, CODE SIZE REDUCTION:1 WORDS
                 SUBOPT_0x3A:
000fa5 01de      	MOVW R26,R28
000fa6 961c      	ADIW R26,12
000fa7 940e 118d 	CALL __ADDW2R15
000fa9 940e 125a 	CALL __GETW1P
000fab 9508      	RET
                 
                 
                 	.CSEG
                 _delay_ms:
000fac 9610      	adiw r26,0
000fad f039      	breq __delay_ms1
                 __delay_ms0:
                +
000fae ed80     +LDI R24 , LOW ( 0x7D0 )
000faf e097     +LDI R25 , HIGH ( 0x7D0 )
                +__DELAY_USW_LOOP :
000fb0 9701     +SBIW R24 , 1
000fb1 f7f1     +BRNE __DELAY_USW_LOOP
                 	__DELAY_USW 0x7D0
000fb2 95a8      	wdr
000fb3 9711      	sbiw r26,1
000fb4 f7c9      	brne __delay_ms0
                 __delay_ms1:
000fb5 9508      	ret
                 
                 	.equ __w1_port=0x15
                 	.equ __w1_bit=0x00
                 
                 _w1_init:
000fb6 27ee      	clr  r30
000fb7 98a8      	cbi  __w1_port,__w1_bit
000fb8 9aa0      	sbi  __w1_port-1,__w1_bit
                +
000fb9 ec80     +LDI R24 , LOW ( 0x3C0 )
000fba e093     +LDI R25 , HIGH ( 0x3C0 )
                +__DELAY_USW_LOOP :
000fbb 9701     +SBIW R24 , 1
000fbc f7f1     +BRNE __DELAY_USW_LOOP
                 	__DELAY_USW 0x3C0
000fbd 98a0      	cbi  __w1_port-1,__w1_bit
                +
000fbe e285     +LDI R24 , LOW ( 0x25 )
                +__DELAY_USB_LOOP :
000fbf 958a     +DEC R24
000fc0 f7f1     +BRNE __DELAY_USB_LOOP
                 	__DELAY_USB 0x25
000fc1 9b98      	sbis __w1_port-2,__w1_bit
000fc2 9508      	ret
                +
000fc3 ec8b     +LDI R24 , LOW ( 0xCB )
                +__DELAY_USB_LOOP :
000fc4 958a     +DEC R24
000fc5 f7f1     +BRNE __DELAY_USB_LOOP
                 	__DELAY_USB 0xCB
000fc6 9b98      	sbis __w1_port-2,__w1_bit
000fc7 e0e1      	ldi  r30,1
                +
000fc8 e08c     +LDI R24 , LOW ( 0x30C )
000fc9 e093     +LDI R25 , HIGH ( 0x30C )
                +__DELAY_USW_LOOP :
000fca 9701     +SBIW R24 , 1
000fcb f7f1     +BRNE __DELAY_USW_LOOP
                 	__DELAY_USW 0x30C
000fcc 9508      	ret
                 
                 __w1_read_bit:
000fcd 9aa0      	sbi  __w1_port-1,__w1_bit
                +
000fce e085     +LDI R24 , LOW ( 0x5 )
                +__DELAY_USB_LOOP :
000fcf 958a     +DEC R24
000fd0 f7f1     +BRNE __DELAY_USB_LOOP
                 	__DELAY_USB 0x5
000fd1 98a0      	cbi  __w1_port-1,__w1_bit
                +
000fd2 e18d     +LDI R24 , LOW ( 0x1D )
                +__DELAY_USB_LOOP :
000fd3 958a     +DEC R24
000fd4 f7f1     +BRNE __DELAY_USB_LOOP
                 	__DELAY_USB 0x1D
000fd5 9488      	clc
000fd6 9998      	sbic __w1_port-2,__w1_bit
000fd7 9408      	sec
000fd8 95e7      	ror  r30
                +
000fd9 ed85     +LDI R24 , LOW ( 0xD5 )
                +__DELAY_USB_LOOP :
000fda 958a     +DEC R24
000fdb f7f1     +BRNE __DELAY_USB_LOOP
                 	__DELAY_USB 0xD5
000fdc 9508      	ret
                 
                 __w1_write_bit:
000fdd 94e8      	clt
000fde 9aa0      	sbi  __w1_port-1,__w1_bit
                +
000fdf e085     +LDI R24 , LOW ( 0x5 )
                +__DELAY_USB_LOOP :
000fe0 958a     +DEC R24
000fe1 f7f1     +BRNE __DELAY_USB_LOOP
                 	__DELAY_USB 0x5
000fe2 fd70      	sbrc r23,0
000fe3 98a0      	cbi  __w1_port-1,__w1_bit
                +
000fe4 e283     +LDI R24 , LOW ( 0x23 )
                +__DELAY_USB_LOOP :
000fe5 958a     +DEC R24
000fe6 f7f1     +BRNE __DELAY_USB_LOOP
                 	__DELAY_USB 0x23
000fe7 9998      	sbic __w1_port-2,__w1_bit
000fe8 c003      	rjmp __w1_write_bit0
000fe9 ff70      	sbrs r23,0
000fea c003      	rjmp __w1_write_bit1
000feb 9508      	ret
                 __w1_write_bit0:
000fec ff70      	sbrs r23,0
000fed 9508      	ret
                 __w1_write_bit1:
                +
000fee ec88     +LDI R24 , LOW ( 0xC8 )
                +__DELAY_USB_LOOP :
000fef 958a     +DEC R24
000ff0 f7f1     +BRNE __DELAY_USB_LOOP
                 	__DELAY_USB 0xC8
000ff1 98a0      	cbi  __w1_port-1,__w1_bit
                +
000ff2 e08d     +LDI R24 , LOW ( 0xD )
                +__DELAY_USB_LOOP :
000ff3 958a     +DEC R24
000ff4 f7f1     +BRNE __DELAY_USB_LOOP
                 	__DELAY_USB 0xD
000ff5 9468      	set
000ff6 9508      	ret
                 
                 _w1_read:
000ff7 e068      	ldi  r22,8
                 	__w1_read0:
000ff8 dfd4      	rcall __w1_read_bit
000ff9 956a      	dec  r22
000ffa f7e9      	brne __w1_read0
000ffb 9508      	ret
                 
                 _w1_write:
000ffc 2f7a      	mov  r23,r26
000ffd e068      	ldi  r22,8
000ffe 27ee      	clr  r30
                 __w1_write0:
000fff dfdd      	rcall __w1_write_bit
001000 f426      	brtc __w1_write1
001001 9577      	ror  r23
001002 956a      	dec  r22
001003 f7d9      	brne __w1_write0
001004 95e3      	inc  r30
                 __w1_write1:
001005 9508      	ret
                 
                 _w1_search:
001006 934f      	push r20
001007 935f      	push r21
001008 2411      	clr  r1
001009 2744      	clr  r20
                 __w1_search0:
00100a 2c01      	mov  r0,r1
00100b 2411      	clr  r1
00100c dfa9      	rcall _w1_init
00100d 23ee      	tst  r30
00100e f101      	breq __w1_search7
00100f 93af      	push r26
001010 81a8      	ld   r26,y
001011 dfea      	rcall _w1_write
001012 91af      	pop  r26
001013 e051      	ldi  r21,1
                 __w1_search1:
001014 1550      	cp   r21,r0
001015 f498      	brsh __w1_search6
001016 dfb6      	rcall __w1_read_bit
001017 fde7      	sbrc r30,7
001018 c008      	rjmp __w1_search2
001019 dfb3      	rcall __w1_read_bit
00101a fde7      	sbrc r30,7
00101b c006      	rjmp __w1_search3
00101c d03f      	rcall __sel_bit
00101d 2389      	and  r24,r25
00101e f419      	brne __w1_search3
00101f 2e15      	mov  r1,r21
001020 c001      	rjmp __w1_search3
                 __w1_search2:
001021 dfab      	rcall __w1_read_bit
                 __w1_search3:
001022 d039      	rcall __sel_bit
001023 2389      	and  r24,r25
001024 e070      	ldi  r23,0
001025 f009      	breq __w1_search5
                 __w1_search4:
001026 e071      	ldi  r23,1
                 __w1_search5:
001027 dfb5      	rcall __w1_write_bit
001028 c01e      	rjmp __w1_search13
                 __w1_search6:
001029 dfa3      	rcall __w1_read_bit
00102a ffe7      	sbrs r30,7
00102b c00b      	rjmp __w1_search9
00102c dfa0      	rcall __w1_read_bit
00102d ffe7      	sbrs r30,7
00102e c005      	rjmp __w1_search8
                 __w1_search7:
00102f 2fe4      	mov  r30,r20
001030 915f      	pop  r21
001031 914f      	pop  r20
001032 9621      	adiw r28,1
001033 9508      	ret
                 __w1_search8:
001034 9468      	set
001035 d037      	rcall __set_bit
001036 cfef      	rjmp __w1_search4
                 __w1_search9:
001037 df95      	rcall __w1_read_bit
001038 ffe7      	sbrs r30,7
001039 c001      	rjmp __w1_search10
00103a c003      	rjmp __w1_search11
                 __w1_search10:
00103b 1550      	cp   r21,r0
00103c f031      	breq __w1_search12
00103d 2e15      	mov  r1,r21
                 __w1_search11:
00103e 94e8      	clt
00103f d02d      	rcall __set_bit
001040 2777      	clr  r23
001041 df9b      	rcall __w1_write_bit
001042 c004      	rjmp __w1_search13
                 __w1_search12:
001043 9468      	set
001044 d028      	rcall __set_bit
001045 e071      	ldi  r23,1
001046 df96      	rcall __w1_write_bit
                 __w1_search13:
001047 9553      	inc  r21
001048 3451      	cpi  r21,65
001049 f254      	brlt __w1_search1
00104a df82      	rcall __w1_read_bit
00104b 1fee      	rol  r30
00104c 1fee      	rol  r30
00104d 70e1      	andi r30,1
00104e 9618      	adiw r26,8
00104f 93ec      	st   x,r30
001050 9718      	sbiw r26,8
001051 9543      	inc  r20
001052 2011      	tst  r1
001053 f2d9      	breq __w1_search7
001054 e059      	ldi  r21,9
                 __w1_search14:
001055 91ec      	ld   r30,x
001056 9619      	adiw r26,9
001057 93ec      	st   x,r30
001058 9718      	sbiw r26,8
001059 955a      	dec  r21
00105a f7d1      	brne __w1_search14
00105b cfae      	rjmp __w1_search0
                 
                 __sel_bit:
00105c 2fe5      	mov  r30,r21
00105d 95ea      	dec  r30
00105e 2f6e      	mov  r22,r30
00105f 95e6      	lsr  r30
001060 95e6      	lsr  r30
001061 95e6      	lsr  r30
001062 27ff      	clr  r31
001063 0fea      	add  r30,r26
001064 1ffb      	adc  r31,r27
001065 8180      	ld   r24,z
001066 e091      	ldi  r25,1
001067 7067      	andi r22,7
                 __sel_bit0:
001068 f019      	breq __sel_bit1
001069 0f99      	lsl  r25
00106a 956a      	dec  r22
00106b cffc      	rjmp __sel_bit0
                 __sel_bit1:
00106c 9508      	ret
                 
                 __set_bit:
00106d dfee      	rcall __sel_bit
00106e f01e      	brts __set_bit2
00106f 9590      	com  r25
001070 2389      	and  r24,r25
001071 c001      	rjmp __set_bit3
                 __set_bit2:
001072 2b89      	or   r24,r25
                 __set_bit3:
001073 8380      	st   z,r24
001074 9508      	ret
                 
                 _w1_dow_crc8:
001075 27ee      	clr  r30
001076 23aa      	tst  r26
001077 f089      	breq __w1_dow_crc83
001078 2f8a      	mov  r24,r26
001079 e168      	ldi  r22,0x18
00107a 81a8      	ld   r26,y
00107b 81b9      	ldd  r27,y+1
                 __w1_dow_crc80:
00107c e098      	ldi  r25,8
00107d 91fd      	ld   r31,x+
                 __w1_dow_crc81:
00107e 2f7f      	mov  r23,r31
00107f 277e      	eor  r23,r30
001080 9577      	ror  r23
001081 f408      	brcc __w1_dow_crc82
001082 27e6      	eor  r30,r22
                 __w1_dow_crc82:
001083 95e7      	ror  r30
001084 95f6      	lsr  r31
001085 959a      	dec  r25
001086 f7b9      	brne __w1_dow_crc81
001087 958a      	dec  r24
001088 f799      	brne __w1_dow_crc80
                 __w1_dow_crc83:
001089 9622      	adiw r28,2
00108a 9508      	ret
                 
                 __ROUND_REPACK:
00108b 2355      	TST  R21
00108c f442      	BRPL __REPACK
00108d 3850      	CPI  R21,0x80
00108e f411      	BRNE __ROUND_REPACK0
00108f ffe0      	SBRS R30,0
001090 c004      	RJMP __REPACK
                 __ROUND_REPACK0:
001091 9631      	ADIW R30,1
001092 1f69      	ADC  R22,R25
001093 1f79      	ADC  R23,R25
001094 f06b      	BRVS __REPACK1
                 
                 __REPACK:
001095 e850      	LDI  R21,0x80
001096 2757      	EOR  R21,R23
001097 f411      	BRNE __REPACK0
001098 935f      	PUSH R21
001099 c073      	RJMP __ZERORES
                 __REPACK0:
00109a 3f5f      	CPI  R21,0xFF
00109b f031      	BREQ __REPACK1
00109c 0f66      	LSL  R22
00109d 0c00      	LSL  R0
00109e 9557      	ROR  R21
00109f 9567      	ROR  R22
0010a0 2f75      	MOV  R23,R21
0010a1 9508      	RET
                 __REPACK1:
0010a2 935f      	PUSH R21
0010a3 2000      	TST  R0
0010a4 f00a      	BRMI __REPACK2
0010a5 c073      	RJMP __MAXRES
                 __REPACK2:
0010a6 c06c      	RJMP __MINRES
                 
                 __UNPACK:
0010a7 e850      	LDI  R21,0x80
0010a8 2e19      	MOV  R1,R25
0010a9 2215      	AND  R1,R21
0010aa 0f88      	LSL  R24
0010ab 1f99      	ROL  R25
0010ac 2795      	EOR  R25,R21
0010ad 0f55      	LSL  R21
0010ae 9587      	ROR  R24
                 
                 __UNPACK1:
0010af e850      	LDI  R21,0x80
0010b0 2e07      	MOV  R0,R23
0010b1 2205      	AND  R0,R21
0010b2 0f66      	LSL  R22
0010b3 1f77      	ROL  R23
0010b4 2775      	EOR  R23,R21
0010b5 0f55      	LSL  R21
0010b6 9567      	ROR  R22
0010b7 9508      	RET
                 
                 __CFD1U:
0010b8 9468      	SET
0010b9 c001      	RJMP __CFD1U0
                 __CFD1:
0010ba 94e8      	CLT
                 __CFD1U0:
0010bb 935f      	PUSH R21
0010bc dff2      	RCALL __UNPACK1
0010bd 3870      	CPI  R23,0x80
0010be f018      	BRLO __CFD10
0010bf 3f7f      	CPI  R23,0xFF
0010c0 f408      	BRCC __CFD10
0010c1 c04b      	RJMP __ZERORES
                 __CFD10:
0010c2 e156      	LDI  R21,22
0010c3 1b57      	SUB  R21,R23
0010c4 f4aa      	BRPL __CFD11
0010c5 9551      	NEG  R21
0010c6 3058      	CPI  R21,8
0010c7 f40e      	BRTC __CFD19
0010c8 3059      	CPI  R21,9
                 __CFD19:
0010c9 f030      	BRLO __CFD17
0010ca efef      	SER  R30
0010cb efff      	SER  R31
0010cc ef6f      	SER  R22
0010cd e77f      	LDI  R23,0x7F
0010ce f977      	BLD  R23,7
0010cf c01a      	RJMP __CFD15
                 __CFD17:
0010d0 2777      	CLR  R23
0010d1 2355      	TST  R21
0010d2 f0b9      	BREQ __CFD15
                 __CFD18:
0010d3 0fee      	LSL  R30
0010d4 1fff      	ROL  R31
0010d5 1f66      	ROL  R22
0010d6 1f77      	ROL  R23
0010d7 955a      	DEC  R21
0010d8 f7d1      	BRNE __CFD18
0010d9 c010      	RJMP __CFD15
                 __CFD11:
0010da 2777      	CLR  R23
                 __CFD12:
0010db 3058      	CPI  R21,8
0010dc f028      	BRLO __CFD13
0010dd 2fef      	MOV  R30,R31
0010de 2ff6      	MOV  R31,R22
0010df 2f67      	MOV  R22,R23
0010e0 5058      	SUBI R21,8
0010e1 cff9      	RJMP __CFD12
                 __CFD13:
0010e2 2355      	TST  R21
0010e3 f031      	BREQ __CFD15
                 __CFD14:
0010e4 9576      	LSR  R23
0010e5 9567      	ROR  R22
0010e6 95f7      	ROR  R31
0010e7 95e7      	ROR  R30
0010e8 955a      	DEC  R21
0010e9 f7d1      	BRNE __CFD14
                 __CFD15:
0010ea 2000      	TST  R0
0010eb f40a      	BRPL __CFD16
0010ec d0a8      	RCALL __ANEGD1
                 __CFD16:
0010ed 915f      	POP  R21
0010ee 9508      	RET
                 
                 __CDF1U:
0010ef 9468      	SET
0010f0 c001      	RJMP __CDF1U0
                 __CDF1:
0010f1 94e8      	CLT
                 __CDF1U0:
0010f2 9730      	SBIW R30,0
0010f3 4060      	SBCI R22,0
0010f4 4070      	SBCI R23,0
0010f5 f0b1      	BREQ __CDF10
0010f6 2400      	CLR  R0
0010f7 f026      	BRTS __CDF11
0010f8 2377      	TST  R23
0010f9 f412      	BRPL __CDF11
0010fa 9400      	COM  R0
0010fb d099      	RCALL __ANEGD1
                 __CDF11:
0010fc 2e17      	MOV  R1,R23
0010fd e17e      	LDI  R23,30
0010fe 2011      	TST  R1
                 __CDF12:
0010ff f032      	BRMI __CDF13
001100 957a      	DEC  R23
001101 0fee      	LSL  R30
001102 1fff      	ROL  R31
001103 1f66      	ROL  R22
001104 1c11      	ROL  R1
001105 cff9      	RJMP __CDF12
                 __CDF13:
001106 2fef      	MOV  R30,R31
001107 2ff6      	MOV  R31,R22
001108 2d61      	MOV  R22,R1
001109 935f      	PUSH R21
00110a df8a      	RCALL __REPACK
00110b 915f      	POP  R21
                 __CDF10:
00110c 9508      	RET
                 
                 __ZERORES:
00110d 27ee      	CLR  R30
00110e 27ff      	CLR  R31
00110f 2766      	CLR  R22
001110 2777      	CLR  R23
001111 915f      	POP  R21
001112 9508      	RET
                 
                 __MINRES:
001113 efef      	SER  R30
001114 efff      	SER  R31
001115 e76f      	LDI  R22,0x7F
001116 ef7f      	SER  R23
001117 915f      	POP  R21
001118 9508      	RET
                 
                 __MAXRES:
001119 efef      	SER  R30
00111a efff      	SER  R31
00111b e76f      	LDI  R22,0x7F
00111c e77f      	LDI  R23,0x7F
00111d 915f      	POP  R21
00111e 9508      	RET
                 
                 __MULF12:
00111f 935f      	PUSH R21
001120 df86      	RCALL __UNPACK
001121 3870      	CPI  R23,0x80
001122 f351      	BREQ __ZERORES
001123 3890      	CPI  R25,0x80
001124 f341      	BREQ __ZERORES
001125 2401      	EOR  R0,R1
001126 9408      	SEC
001127 1f79      	ADC  R23,R25
001128 f423      	BRVC __MULF124
001129 f31c      	BRLT __ZERORES
                 __MULF125:
00112a 2000      	TST  R0
00112b f33a      	BRMI __MINRES
00112c cfec      	RJMP __MAXRES
                 __MULF124:
00112d 920f      	PUSH R0
00112e 931f      	PUSH R17
00112f 932f      	PUSH R18
001130 933f      	PUSH R19
001131 934f      	PUSH R20
001132 2711      	CLR  R17
001133 2722      	CLR  R18
001134 2799      	CLR  R25
001135 9f68      	MUL  R22,R24
001136 01a0      	MOVW R20,R0
001137 9f8f      	MUL  R24,R31
001138 2d30      	MOV  R19,R0
001139 0d41      	ADD  R20,R1
00113a 1f59      	ADC  R21,R25
00113b 9f6b      	MUL  R22,R27
00113c 0d30      	ADD  R19,R0
00113d 1d41      	ADC  R20,R1
00113e 1f59      	ADC  R21,R25
00113f 9f8e      	MUL  R24,R30
001140 d027      	RCALL __MULF126
001141 9fbf      	MUL  R27,R31
001142 d025      	RCALL __MULF126
001143 9f6a      	MUL  R22,R26
001144 d023      	RCALL __MULF126
001145 9fbe      	MUL  R27,R30
001146 d01d      	RCALL __MULF127
001147 9faf      	MUL  R26,R31
001148 d01b      	RCALL __MULF127
001149 9fae      	MUL  R26,R30
00114a 0d11      	ADD  R17,R1
00114b 1f29      	ADC  R18,R25
00114c 1f39      	ADC  R19,R25
00114d 1f49      	ADC  R20,R25
00114e 1f59      	ADC  R21,R25
00114f 2fe3      	MOV  R30,R19
001150 2ff4      	MOV  R31,R20
001151 2f65      	MOV  R22,R21
001152 2f52      	MOV  R21,R18
001153 914f      	POP  R20
001154 913f      	POP  R19
001155 912f      	POP  R18
001156 911f      	POP  R17
001157 900f      	POP  R0
001158 2366      	TST  R22
001159 f02a      	BRMI __MULF122
00115a 0f55      	LSL  R21
00115b 1fee      	ROL  R30
00115c 1fff      	ROL  R31
00115d 1f66      	ROL  R22
00115e c002      	RJMP __MULF123
                 __MULF122:
00115f 9573      	INC  R23
001160 f24b      	BRVS __MULF125
                 __MULF123:
001161 df29      	RCALL __ROUND_REPACK
001162 915f      	POP  R21
001163 9508      	RET
                 
                 __MULF127:
001164 0d10      	ADD  R17,R0
001165 1d21      	ADC  R18,R1
001166 1f39      	ADC  R19,R25
001167 c002      	RJMP __MULF128
                 __MULF126:
001168 0d20      	ADD  R18,R0
001169 1d31      	ADC  R19,R1
                 __MULF128:
00116a 1f49      	ADC  R20,R25
00116b 1f59      	ADC  R21,R25
00116c 9508      	RET
                 
                 __CMPF12:
00116d 2399      	TST  R25
00116e f09a      	BRMI __CMPF120
00116f 2377      	TST  R23
001170 f042      	BRMI __CMPF121
001171 1797      	CP   R25,R23
001172 f048      	BRLO __CMPF122
001173 f429      	BRNE __CMPF121
001174 17ae      	CP   R26,R30
001175 07bf      	CPC  R27,R31
001176 0786      	CPC  R24,R22
001177 f020      	BRLO __CMPF122
001178 f031      	BREQ __CMPF123
                 __CMPF121:
001179 9498      	CLZ
00117a 9488      	CLC
00117b 9508      	RET
                 __CMPF122:
00117c 9498      	CLZ
00117d 9408      	SEC
00117e 9508      	RET
                 __CMPF123:
00117f 9418      	SEZ
001180 9488      	CLC
001181 9508      	RET
                 __CMPF120:
001182 2377      	TST  R23
001183 f7c2      	BRPL __CMPF122
001184 1797      	CP   R25,R23
001185 f398      	BRLO __CMPF121
001186 f7a9      	BRNE __CMPF122
001187 17ea      	CP   R30,R26
001188 07fb      	CPC  R31,R27
001189 0768      	CPC  R22,R24
00118a f388      	BRLO __CMPF122
00118b f399      	BREQ __CMPF123
00118c cfec      	RJMP __CMPF121
                 
                 __ADDW2R15:
00118d 2400      	CLR  R0
00118e 0daf      	ADD  R26,R15
00118f 1db0      	ADC  R27,R0
001190 9508      	RET
                 
                 __ANEGW1:
001191 95f1      	NEG  R31
001192 95e1      	NEG  R30
001193 40f0      	SBCI R31,0
001194 9508      	RET
                 
                 __ANEGD1:
001195 95f0      	COM  R31
001196 9560      	COM  R22
001197 9570      	COM  R23
001198 95e1      	NEG  R30
001199 4fff      	SBCI R31,-1
00119a 4f6f      	SBCI R22,-1
00119b 4f7f      	SBCI R23,-1
00119c 9508      	RET
                 
                 __LSLB12:
00119d 23ee      	TST  R30
00119e 2e0e      	MOV  R0,R30
00119f 2fea      	MOV  R30,R26
0011a0 f019      	BREQ __LSLB12R
                 __LSLB12L:
0011a1 0fee      	LSL  R30
0011a2 940a      	DEC  R0
0011a3 f7e9      	BRNE __LSLB12L
                 __LSLB12R:
0011a4 9508      	RET
                 
                 __CWD1:
0011a5 2f6f      	MOV  R22,R31
0011a6 0f66      	ADD  R22,R22
0011a7 0b66      	SBC  R22,R22
0011a8 2f76      	MOV  R23,R22
0011a9 9508      	RET
                 
                 __CWD2:
0011aa 2f8b      	MOV  R24,R27
0011ab 0f88      	ADD  R24,R24
0011ac 0b88      	SBC  R24,R24
0011ad 2f98      	MOV  R25,R24
0011ae 9508      	RET
                 
                 __LNEGB1:
0011af 23ee      	TST  R30
0011b0 e0e1      	LDI  R30,1
0011b1 f009      	BREQ __LNEGB1F
0011b2 27ee      	CLR  R30
                 __LNEGB1F:
0011b3 9508      	RET
                 
                 __MULW12U:
0011b4 9ffa      	MUL  R31,R26
0011b5 2df0      	MOV  R31,R0
0011b6 9feb      	MUL  R30,R27
0011b7 0df0      	ADD  R31,R0
0011b8 9fea      	MUL  R30,R26
0011b9 2de0      	MOV  R30,R0
0011ba 0df1      	ADD  R31,R1
0011bb 9508      	RET
                 
                 __MULD12U:
0011bc 9f7a      	MUL  R23,R26
0011bd 2d70      	MOV  R23,R0
0011be 9f6b      	MUL  R22,R27
0011bf 0d70      	ADD  R23,R0
0011c0 9ff8      	MUL  R31,R24
0011c1 0d70      	ADD  R23,R0
0011c2 9fe9      	MUL  R30,R25
0011c3 0d70      	ADD  R23,R0
0011c4 9f6a      	MUL  R22,R26
0011c5 2d60      	MOV  R22,R0
0011c6 0d71      	ADD  R23,R1
0011c7 9ffb      	MUL  R31,R27
0011c8 0d60      	ADD  R22,R0
0011c9 1d71      	ADC  R23,R1
0011ca 9fe8      	MUL  R30,R24
0011cb 0d60      	ADD  R22,R0
0011cc 1d71      	ADC  R23,R1
0011cd 2788      	CLR  R24
0011ce 9ffa      	MUL  R31,R26
0011cf 2df0      	MOV  R31,R0
0011d0 0d61      	ADD  R22,R1
0011d1 1f78      	ADC  R23,R24
0011d2 9feb      	MUL  R30,R27
0011d3 0df0      	ADD  R31,R0
0011d4 1d61      	ADC  R22,R1
0011d5 1f78      	ADC  R23,R24
0011d6 9fea      	MUL  R30,R26
0011d7 2de0      	MOV  R30,R0
0011d8 0df1      	ADD  R31,R1
0011d9 1f68      	ADC  R22,R24
0011da 1f78      	ADC  R23,R24
0011db 9508      	RET
                 
                 __MULW12:
0011dc d05c      	RCALL __CHKSIGNW
0011dd dfd6      	RCALL __MULW12U
0011de f40e      	BRTC __MULW121
0011df dfb1      	RCALL __ANEGW1
                 __MULW121:
0011e0 9508      	RET
                 
                 __MULD12:
0011e1 d065      	RCALL __CHKSIGND
0011e2 dfd9      	RCALL __MULD12U
0011e3 f40e      	BRTC __MULD121
0011e4 dfb0      	RCALL __ANEGD1
                 __MULD121:
0011e5 9508      	RET
                 
                 __DIVW21U:
0011e6 2400      	CLR  R0
0011e7 2411      	CLR  R1
0011e8 e190      	LDI  R25,16
                 __DIVW21U1:
0011e9 0faa      	LSL  R26
0011ea 1fbb      	ROL  R27
0011eb 1c00      	ROL  R0
0011ec 1c11      	ROL  R1
0011ed 1a0e      	SUB  R0,R30
0011ee 0a1f      	SBC  R1,R31
0011ef f418      	BRCC __DIVW21U2
0011f0 0e0e      	ADD  R0,R30
0011f1 1e1f      	ADC  R1,R31
0011f2 c001      	RJMP __DIVW21U3
                 __DIVW21U2:
0011f3 60a1      	SBR  R26,1
                 __DIVW21U3:
0011f4 959a      	DEC  R25
0011f5 f799      	BRNE __DIVW21U1
0011f6 01fd      	MOVW R30,R26
0011f7 01d0      	MOVW R26,R0
0011f8 9508      	RET
                 
                 __DIVW21:
0011f9 d03f      	RCALL __CHKSIGNW
0011fa dfeb      	RCALL __DIVW21U
0011fb f40e      	BRTC __DIVW211
0011fc df94      	RCALL __ANEGW1
                 __DIVW211:
0011fd 9508      	RET
                 
                 __DIVD21U:
0011fe 933f      	PUSH R19
0011ff 934f      	PUSH R20
001200 935f      	PUSH R21
001201 2400      	CLR  R0
001202 2411      	CLR  R1
001203 2744      	CLR  R20
001204 2755      	CLR  R21
001205 e230      	LDI  R19,32
                 __DIVD21U1:
001206 0faa      	LSL  R26
001207 1fbb      	ROL  R27
001208 1f88      	ROL  R24
001209 1f99      	ROL  R25
00120a 1c00      	ROL  R0
00120b 1c11      	ROL  R1
00120c 1f44      	ROL  R20
00120d 1f55      	ROL  R21
00120e 1a0e      	SUB  R0,R30
00120f 0a1f      	SBC  R1,R31
001210 0b46      	SBC  R20,R22
001211 0b57      	SBC  R21,R23
001212 f428      	BRCC __DIVD21U2
001213 0e0e      	ADD  R0,R30
001214 1e1f      	ADC  R1,R31
001215 1f46      	ADC  R20,R22
001216 1f57      	ADC  R21,R23
001217 c001      	RJMP __DIVD21U3
                 __DIVD21U2:
001218 60a1      	SBR  R26,1
                 __DIVD21U3:
001219 953a      	DEC  R19
00121a f759      	BRNE __DIVD21U1
00121b 01fd      	MOVW R30,R26
00121c 01bc      	MOVW R22,R24
00121d 01d0      	MOVW R26,R0
00121e 01ca      	MOVW R24,R20
00121f 915f      	POP  R21
001220 914f      	POP  R20
001221 913f      	POP  R19
001222 9508      	RET
                 
                 __DIVD21:
001223 d023      	RCALL __CHKSIGND
001224 dfd9      	RCALL __DIVD21U
001225 f40e      	BRTC __DIVD211
001226 df6e      	RCALL __ANEGD1
                 __DIVD211:
001227 9508      	RET
                 
                 __MODW21U:
001228 dfbd      	RCALL __DIVW21U
001229 01fd      	MOVW R30,R26
00122a 9508      	RET
                 
                 __MODW21:
00122b 94e8      	CLT
00122c ffb7      	SBRS R27,7
00122d c004      	RJMP __MODW211
00122e 95a0      	COM  R26
00122f 95b0      	COM  R27
001230 9611      	ADIW R26,1
001231 9468      	SET
                 __MODW211:
001232 fdf7      	SBRC R31,7
001233 df5d      	RCALL __ANEGW1
001234 dfb1      	RCALL __DIVW21U
001235 01fd      	MOVW R30,R26
001236 f40e      	BRTC __MODW212
001237 df59      	RCALL __ANEGW1
                 __MODW212:
001238 9508      	RET
                 
                 __CHKSIGNW:
001239 94e8      	CLT
00123a fff7      	SBRS R31,7
00123b c002      	RJMP __CHKSW1
00123c df54      	RCALL __ANEGW1
00123d 9468      	SET
                 __CHKSW1:
00123e ffb7      	SBRS R27,7
00123f c006      	RJMP __CHKSW2
001240 95a0      	COM  R26
001241 95b0      	COM  R27
001242 9611      	ADIW R26,1
001243 f800      	BLD  R0,0
001244 9403      	INC  R0
001245 fa00      	BST  R0,0
                 __CHKSW2:
001246 9508      	RET
                 
                 __CHKSIGND:
001247 94e8      	CLT
001248 ff77      	SBRS R23,7
001249 c002      	RJMP __CHKSD1
00124a df4a      	RCALL __ANEGD1
00124b 9468      	SET
                 __CHKSD1:
00124c ff97      	SBRS R25,7
00124d c00b      	RJMP __CHKSD2
00124e 2400      	CLR  R0
00124f 95a0      	COM  R26
001250 95b0      	COM  R27
001251 9580      	COM  R24
001252 9590      	COM  R25
001253 9611      	ADIW R26,1
001254 1d80      	ADC  R24,R0
001255 1d90      	ADC  R25,R0
001256 f800      	BLD  R0,0
001257 9403      	INC  R0
001258 fa00      	BST  R0,0
                 __CHKSD2:
001259 9508      	RET
                 
                 __GETW1P:
00125a 91ed      	LD   R30,X+
00125b 91fc      	LD   R31,X
00125c 9711      	SBIW R26,1
00125d 9508      	RET
                 
                 __GETW1PF:
00125e 9005      	LPM  R0,Z+
00125f 91f4      	LPM  R31,Z
001260 2de0      	MOV  R30,R0
001261 9508      	RET
                 
                 __GETW2PF:
001262 91a5      	LPM  R26,Z+
001263 91b4      	LPM  R27,Z
001264 9508      	RET
                 
                 __PUTD1S0:
001265 83e8      	ST   Y,R30
001266 83f9      	STD  Y+1,R31
001267 836a      	STD  Y+2,R22
001268 837b      	STD  Y+3,R23
001269 9508      	RET
                 
                 __PUTPARD1:
00126a 937a      	ST   -Y,R23
00126b 936a      	ST   -Y,R22
00126c 93fa      	ST   -Y,R31
00126d 93ea      	ST   -Y,R30
00126e 9508      	RET
                 
                 __SWAPW12:
00126f 2e1b      	MOV  R1,R27
001270 2fbf      	MOV  R27,R31
001271 2df1      	MOV  R31,R1
                 
                 __SWAPB12:
001272 2e1a      	MOV  R1,R26
001273 2fae      	MOV  R26,R30
001274 2de1      	MOV  R30,R1
001275 9508      	RET
                 
                 __CPW02:
001276 2400      	CLR  R0
001277 160a      	CP   R0,R26
001278 060b      	CPC  R0,R27
001279 9508      	RET
                 
                 __SAVELOCR6:
00127a 935a      	ST   -Y,R21
                 __SAVELOCR5:
00127b 934a      	ST   -Y,R20
                 __SAVELOCR4:
00127c 933a      	ST   -Y,R19
                 __SAVELOCR3:
00127d 932a      	ST   -Y,R18
                 __SAVELOCR2:
00127e 931a      	ST   -Y,R17
00127f 930a      	ST   -Y,R16
001280 9508      	RET
                 
                 __LOADLOCR6:
001281 815d      	LDD  R21,Y+5
                 __LOADLOCR5:
001282 814c      	LDD  R20,Y+4
                 __LOADLOCR4:
001283 813b      	LDD  R19,Y+3
                 __LOADLOCR3:
001284 812a      	LDD  R18,Y+2
                 __LOADLOCR2:
001285 8119      	LDD  R17,Y+1
001286 8108      	LD   R16,Y
001287 9508      	RET
                 
                 ;END OF CODE MARKER
                 __END_OF_CODE:


RESOURCE USE INFORMATION
------------------------

Notice:
The register and instruction counts are symbol table hit counts,
and hence implicitly used resources are not counted, eg, the
'lpm' instruction without operands implicitly uses r0 and z,
none of which are counted.

x,y,z are separate entities in the symbol table and are
counted separately from r26..r31 here.

.dseg memory usage only counts static data declared with .byte

ATmega16 register use summary:
r0 :  90 r1 :  42 r2 :   2 r3 :   0 r4 :   1 r5 :   1 r6 :   2 r7 :   1 
r8 :   9 r9 :   0 r10:   3 r11:   1 r12:   2 r13:   0 r14:   0 r15:   7 
r16:  85 r17:  89 r18:  72 r19:  47 r20:  35 r21:  83 r22:  88 r23:  85 
r24:  86 r25:  52 r26: 432 r27: 195 r28:  34 r29:   1 r30: 792 r31: 317 
x  :  35 y  : 543 z  :  35 
Registers used: 31 out of 35 (88.6%)

ATmega16 instruction use summary:
.lds  :   0 .lds.l:   0 .sts  :   0 .sts.l:   0 adc   :  43 add   :  37 
adiw  :  50 and   :   8 andi  :  20 asr   :   2 bclr  :   0 bld   :   3 
brbc  :   0 brbs  :   0 brcc  :   5 brcs  :   0 break :   0 breq  :  44 
brge  :  12 brhc  :   0 brhs  :   0 brid  :   0 brie  :   0 brlo  :  25 
brlt  :   8 brmi  :   9 brne  :  73 brpl  :   9 brsh  :  17 brtc  :   7 
brts  :   2 brvc  :   1 brvs  :   2 bset  :   0 bst   :   2 call  : 306 
cbi   :   9 cbr   :   0 clc   :   3 clh   :   0 cli   :   2 cln   :   0 
clr   :  53 cls   :   0 clt   :   7 clv   :   0 clz   :   2 com   :  15 
cp    :  22 cpc   :  34 cpi   :  89 cpse  :   0 dec   :  24 des   :   0 
eor   :   7 fmul  :   0 fmuls :   0 fmulsu:   0 icall :   2 ijmp  :   0 
in    :   8 inc   :   6 jmp   :  33 ld    :  51 ldd   : 241 ldi   : 506 
lds   :  49 lpm   :  25 lsl   :  27 lsr   :   6 mov   :  88 movw  : 101 
mul   :  27 muls  :   8 mulsu :   0 neg   :   4 nop   :   0 or    :  10 
ori   :  12 out   :  49 pop   :  20 push  :  19 rcall : 105 ret   : 123 
reti  :   2 rjmp  : 171 rol   :  27 ror   :  13 sbc   :  19 sbci  :  23 
sbi   :  16 sbic  :   3 sbis  :   4 sbiw  :  40 sbr   :   2 sbrc  :   8 
sbrs  :  21 sec   :   3 seh   :   0 sei   :   2 sen   :   0 ser   :   8 
ses   :   0 set   :   8 sev   :   0 sez   :   1 sleep :   0 spm   :   0 
st    : 234 std   :  69 sts   :  19 sub   :  18 subi  :  43 swap  :   3 
tst   :  26 wdr   :   1 
Instructions used: 83 out of 116 (71.6%)

ATmega16 memory use summary [bytes]:
Segment   Begin    End      Code   Data   Used    Size   Use%
---------------------------------------------------------------
[.cseg] 0x000000 0x002510   7312   2176   9488   16384  57.9%
[.dseg] 0x000060 0x0003b4      0    596    596    1119  53.3%
[.eseg] 0x000000 0x000000      0      0      0     512   0.0%

Assembly complete, 0 errors, 12 warnings
